(dp1
S'files'
p2
(dp3
S'_home_kelvin__virtualenvs_matienv_lib_python2_7_site-packages_django_contrib_staticfiles_models'
p4
(dp5
S'index'
p6
(dp7
S'html_filename'
p8
S'_home_kelvin__virtualenvs_matienv_lib_python2_7_site-packages_django_contrib_staticfiles_models.html'
p9
sS'name'
p10
S'/home/kelvin/.virtualenvs/matienv/lib/python2.7/site-packages/django/contrib/staticfiles/models'
p11
sS'nums'
p12
ccopy_reg
_reconstructor
p13
(ccoverage.results
Numbers
p14
c__builtin__
object
p15
NtRp16
(dp17
S'n_files'
p18
I1
sS'n_branches'
p19
I0
sS'n_statements'
p20
I0
sS'n_excluded'
p21
I0
sS'n_partial_branches'
p22
I0
sS'n_missing'
p23
I0
sS'n_missing_branches'
p24
I0
sbssS'hash'
p25
S'\xca\xf5\x9f\x7f\x88\xdfa\x831|T\x1d\xbc}\xa5v'
p26
ssS'_home_kelvin__virtualenvs_matienv_lib_python2_7_site-packages_django_middleware_common'
p27
(dp28
S'index'
p29
(dp30
S'html_filename'
p31
S'_home_kelvin__virtualenvs_matienv_lib_python2_7_site-packages_django_middleware_common.html'
p32
sS'name'
p33
S'/home/kelvin/.virtualenvs/matienv/lib/python2.7/site-packages/django/middleware/common'
p34
sS'nums'
p35
g13
(g14
g15
NtRp36
(dp37
g18
I1
sg19
I0
sg20
I77
sg21
I0
sg22
I0
sg23
I47
sg24
I0
sbssS'hash'
p38
S'n\x03j\xb0*Q:\t\xf0\x87\xc2g\xaao\xef\xe7'
p39
ssS'_home_kelvin__virtualenvs_matienv_lib_python2_7_site-packages_django_core_management_sql'
p40
(dp41
g6
(dp42
g8
S'_home_kelvin__virtualenvs_matienv_lib_python2_7_site-packages_django_core_management_sql.html'
p43
sg10
S'/home/kelvin/.virtualenvs/matienv/lib/python2.7/site-packages/django/core/management/sql'
p44
sg12
g13
(g14
g15
NtRp45
(dp46
g18
I1
sg19
I0
sg20
I126
sg21
I0
sg22
I0
sg23
I87
sg24
I0
sbssg25
S'Kh\xe3\xd7P"`\x9d\x8e\x85%\xf2%U\xaf\x83'
p47
ssS'_home_kelvin__virtualenvs_matienv_lib_python2_7_site-packages_rest_framework_decorators'
p48
(dp49
g6
(dp50
g8
S'_home_kelvin__virtualenvs_matienv_lib_python2_7_site-packages_rest_framework_decorators.html'
p51
sg10
S'/home/kelvin/.virtualenvs/matienv/lib/python2.7/site-packages/rest_framework/decorators'
p52
sg12
g13
(g14
g15
NtRp53
(dp54
g18
I1
sg19
I0
sg20
I81
sg21
I0
sg22
I0
sg23
I66
sg24
I0
sbssg25
S'h\x1b\xe82\xc5h\xd6\x9e\x85\x8b\x86M\x9e\xb8q\x07'
p55
ssS'_home_kelvin__virtualenvs_matienv_lib_python2_7_site-packages_django_template_loaders_cached'
p56
(dp57
g6
(dp58
g8
S'_home_kelvin__virtualenvs_matienv_lib_python2_7_site-packages_django_template_loaders_cached.html'
p59
sg10
S'/home/kelvin/.virtualenvs/matienv/lib/python2.7/site-packages/django/template/loaders/cached'
p60
sg12
g13
(g14
g15
NtRp61
(dp62
g18
I1
sg19
I0
sg20
I42
sg21
I0
sg22
I0
sg23
I31
sg24
I0
sbssg25
S'_\x15~\xf5X\xf1\x00\x89\xc2\xd2\xbe\xbd\x93?\xdaK'
p63
ssS'_home_kelvin__virtualenvs_matienv_lib_python2_7_site-packages_django_contrib_staticfiles_views'
p64
(dp65
g6
(dp66
g8
S'_home_kelvin__virtualenvs_matienv_lib_python2_7_site-packages_django_contrib_staticfiles_views.html'
p67
sg10
S'/home/kelvin/.virtualenvs/matienv/lib/python2.7/site-packages/django/contrib/staticfiles/views'
p68
sg12
g13
(g14
g15
NtRp69
(dp70
g18
I1
sg19
I0
sg20
I19
sg21
I0
sg22
I0
sg23
I10
sg24
I0
sbssg25
S"\xb9\xf1o~'!\xf5\xc4Y\xa1\x16\xb7\x84]\x16\x9e"
p71
ssS'_home_kelvin__virtualenvs_matienv_lib_python2_7_site-packages_django_core_validators'
p72
(dp73
g6
(dp74
g8
S'_home_kelvin__virtualenvs_matienv_lib_python2_7_site-packages_django_core_validators.html'
p75
sg10
S'/home/kelvin/.virtualenvs/matienv/lib/python2.7/site-packages/django/core/validators'
p76
sg12
g13
(g14
g15
NtRp77
(dp78
g18
I1
sg19
I0
sg20
I133
sg21
I0
sg22
I0
sg23
I58
sg24
I0
sbssg25
S'\xef?\x8fd5e\xcf\xc8a\x98 N\xc1\xf8i\xaa'
p79
ssS'_home_kelvin__virtualenvs_matienv_lib_python2_7_site-packages_django_http_multipartparser'
p80
(dp81
g6
(dp82
g8
S'_home_kelvin__virtualenvs_matienv_lib_python2_7_site-packages_django_http_multipartparser.html'
p83
sg10
S'/home/kelvin/.virtualenvs/matienv/lib/python2.7/site-packages/django/http/multipartparser'
p84
sg12
g13
(g14
g15
NtRp85
(dp86
g18
I1
sg19
I0
sg20
I345
sg21
I0
sg22
I0
sg23
I292
sg24
I0
sbssg25
S'\xc2\xaf\xbb\x19m\xc3*K\xad!\x88)"\xd9\x0e\xfc'
p87
ssS'_home_kelvin__virtualenvs_matienv_lib_python2_7_site-packages_django_contrib_sessions_serializers'
p88
(dp89
g29
(dp90
g31
S'_home_kelvin__virtualenvs_matienv_lib_python2_7_site-packages_django_contrib_sessions_serializers.html'
p91
sg33
S'/home/kelvin/.virtualenvs/matienv/lib/python2.7/site-packages/django/contrib/sessions/serializers'
p92
sg35
g13
(g14
g15
NtRp93
(dp94
g18
I1
sg19
I0
sg20
I11
sg21
I0
sg22
I0
sg23
I4
sg24
I0
sbssg38
S'\xd1\r\xe2\x0e_2\xa4;r\xa8z\x90a\xba\xc2\xb4'
p95
ssS'_home_kelvin__virtualenvs_matienv_lib_python2_7_site-packages_django_extensions___init__'
p96
(dp97
g6
(dp98
g8
S'_home_kelvin__virtualenvs_matienv_lib_python2_7_site-packages_django_extensions___init__.html'
p99
sg10
S'/home/kelvin/.virtualenvs/matienv/lib/python2.7/site-packages/django_extensions/__init__'
p100
sg12
g13
(g14
g15
NtRp101
(dp102
g18
I1
sg19
I0
sg20
I7
sg21
I0
sg22
I0
sg23
I2
sg24
I0
sbssg25
S'\xe5y$\x16\xbb|E5\xfbXtUC{\xb1?'
p103
ssS'_home_kelvin__virtualenvs_matienv_lib_python2_7_site-packages_django_views_generic_list'
p104
(dp105
g6
(dp106
g8
S'_home_kelvin__virtualenvs_matienv_lib_python2_7_site-packages_django_views_generic_list.html'
p107
sg10
S'/home/kelvin/.virtualenvs/matienv/lib/python2.7/site-packages/django/views/generic/list'
p108
sg12
g13
(g14
g15
NtRp109
(dp110
g18
I1
sg19
I0
sg20
I89
sg21
I0
sg22
I0
sg23
I60
sg24
I0
sbssg25
S'g$\x1b\xad\xee.c\x9er\x85\xc7`\x86\n0m'
p111
ssS'_home_kelvin__virtualenvs_matienv_lib_python2_7_site-packages_django_core_signals'
p112
(dp113
g6
(dp114
g8
S'_home_kelvin__virtualenvs_matienv_lib_python2_7_site-packages_django_core_signals.html'
p115
sg10
S'/home/kelvin/.virtualenvs/matienv/lib/python2.7/site-packages/django/core/signals'
p116
sg12
g13
(g14
g15
NtRp117
(dp118
g18
I1
sg19
I0
sg20
I4
sg21
I0
sg22
I0
sg23
I0
sg24
I0
sbssg25
S'\x11)\xaf\xa7<%!O_\xa5\xae\x81Dl\xa7C'
p119
ssS'_home_kelvin__virtualenvs_matienv_lib_python2_7_site-packages_south_db___init__'
p120
(dp121
g6
(dp122
g8
S'_home_kelvin__virtualenvs_matienv_lib_python2_7_site-packages_south_db___init__.html'
p123
sg10
S'/home/kelvin/.virtualenvs/matienv/lib/python2.7/site-packages/south/db/__init__'
p124
sg12
g13
(g14
g15
NtRp125
(dp126
g18
I1
sg19
I0
sg20
I24
sg21
I0
sg22
I0
sg23
I9
sg24
I0
sbssg25
S'*\xda+i\x84\x18\xc0\xb4O\n\x11D\xbd/ &'
p127
ssS'_home_kelvin__virtualenvs_matienv_lib_python2_7_site-packages_django_contrib_admin_templatetags_admin_static'
p128
(dp129
g6
(dp130
g8
S'_home_kelvin__virtualenvs_matienv_lib_python2_7_site-packages_django_contrib_admin_templatetags_admin_static.html'
p131
sg10
S'/home/kelvin/.virtualenvs/matienv/lib/python2.7/site-packages/django/contrib/admin/templatetags/admin_static'
p132
sg12
g13
(g14
g15
NtRp133
(dp134
g18
I1
sg19
I0
sg20
I7
sg21
I0
sg22
I0
sg23
I1
sg24
I0
sbssg25
S'B\xb8!Q\xd1\xca\x98=!\xaf\xceL\x82\xcb\xa2\x01'
p135
ssS'_home_kelvin__virtualenvs_matienv_lib_python2_7_site-packages_django_core_files_locks'
p136
(dp137
g6
(dp138
g8
S'_home_kelvin__virtualenvs_matienv_lib_python2_7_site-packages_django_core_files_locks.html'
p139
sg10
S'/home/kelvin/.virtualenvs/matienv/lib/python2.7/site-packages/django/core/files/locks'
p140
sg12
g13
(g14
g15
NtRp141
(dp142
g18
I1
sg19
I0
sg20
I40
sg21
I0
sg22
I0
sg23
I23
sg24
I0
sbssg25
S'\xe4\xfe\xbaH\xd9\xb2i_\\\xd6\xd8\xfd\r\x16\xf8\x1a'
p143
ssS'_home_kelvin__virtualenvs_matienv_lib_python2_7_site-packages_django_core_cache_backends_locmem'
p144
(dp145
g6
(dp146
g8
S'_home_kelvin__virtualenvs_matienv_lib_python2_7_site-packages_django_core_cache_backends_locmem.html'
p147
sg10
S'/home/kelvin/.virtualenvs/matienv/lib/python2.7/site-packages/django/core/cache/backends/locmem'
p148
sg12
g13
(g14
g15
NtRp149
(dp150
g18
I1
sg19
I0
sg20
I118
sg21
I0
sg22
I0
sg23
I92
sg24
I0
sbssg25
S'\x10\xd8\x84L\xcf\xf7~\xb6s\xd6P@cB\xab1'
p151
ssS'_home_kelvin__virtualenvs_matienv_lib_python2_7_site-packages_south_utils_py3'
p152
(dp153
g6
(dp154
g8
S'_home_kelvin__virtualenvs_matienv_lib_python2_7_site-packages_south_utils_py3.html'
p155
sg10
S'/home/kelvin/.virtualenvs/matienv/lib/python2.7/site-packages/south/utils/py3'
p156
sg12
g13
(g14
g15
NtRp157
(dp158
g18
I1
sg19
I0
sg20
I23
sg21
I0
sg22
I0
sg23
I8
sg24
I0
sbssg25
S't\xfe\x85\xdaK\xe0\xd1)O\xc84Mw\x0eQ\xfa'
p159
ssS'_home_kelvin__virtualenvs_matienv_lib_python2_7_site-packages_django_test_html'
p160
(dp161
g6
(dp162
g8
S'_home_kelvin__virtualenvs_matienv_lib_python2_7_site-packages_django_test_html.html'
p163
sg10
S'/home/kelvin/.virtualenvs/matienv/lib/python2.7/site-packages/django/test/html'
p164
sg12
g13
(g14
g15
NtRp165
(dp166
g18
I1
sg19
I0
sg20
I167
sg21
I0
sg22
I0
sg23
I128
sg24
I0
sbssg25
S'\x06\xa8a\xd2-a\x8b\xeb\xff\xae\x87>\xd0\xdf\xd4\xa7'
p167
ssS'_home_kelvin__virtualenvs_matienv_lib_python2_7_site-packages_django_utils_encoding'
p168
(dp169
g6
(dp170
g8
S'_home_kelvin__virtualenvs_matienv_lib_python2_7_site-packages_django_utils_encoding.html'
p171
sg10
S'/home/kelvin/.virtualenvs/matienv/lib/python2.7/site-packages/django/utils/encoding'
p172
sg12
g13
(g14
g15
NtRp173
(dp174
g18
I1
sg19
I0
sg20
I108
sg21
I0
sg22
I0
sg23
I43
sg24
I0
sbssg25
S'%\xbc\xbe\x8c\xe7\xf3\x95\x9d\n\x06n\x89\xca\x99Ms'
p175
ssS'_home_kelvin__virtualenvs_matienv_lib_python2_7_site-packages_django_core_files___init__'
p176
(dp177
g6
(dp178
g8
S'_home_kelvin__virtualenvs_matienv_lib_python2_7_site-packages_django_core_files___init__.html'
p179
sg10
S'/home/kelvin/.virtualenvs/matienv/lib/python2.7/site-packages/django/core/files/__init__'
p180
sg12
g13
(g14
g15
NtRp181
(dp182
g18
I1
sg19
I0
sg20
I1
sg21
I0
sg22
I0
sg23
I0
sg24
I0
sbssg25
S'\x93\xf8\xbd[\xbcl\x80\x88}\xdb\xd6\xec\xb5{\x15\xb3'
p183
ssS'_home_kelvin__virtualenvs_matienv_lib_python2_7_site-packages_rest_framework_relations'
p184
(dp185
g6
(dp186
g8
S'_home_kelvin__virtualenvs_matienv_lib_python2_7_site-packages_rest_framework_relations.html'
p187
sg10
S'/home/kelvin/.virtualenvs/matienv/lib/python2.7/site-packages/rest_framework/relations'
p188
sg12
g13
(g14
g15
NtRp189
(dp190
g18
I1
sg19
I0
sg20
I345
sg21
I0
sg22
I0
sg23
I274
sg24
I0
sbssg25
S'\x1e\xd3\xc7\xcf\xb3\xd2\xdc\xf6\xff\xe9P\xd0<\xcei\xcd'
p191
ssS'_home_kelvin__virtualenvs_matienv_lib_python2_7_site-packages_django_template_loaders_app_directories'
p192
(dp193
g6
(dp194
g8
S'_home_kelvin__virtualenvs_matienv_lib_python2_7_site-packages_django_template_loaders_app_directories.html'
p195
sg10
S'/home/kelvin/.virtualenvs/matienv/lib/python2.7/site-packages/django/template/loaders/app_directories'
p196
sg12
g13
(g14
g15
NtRp197
(dp198
g18
I1
sg19
I0
sg20
I43
sg21
I0
sg22
I0
sg23
I18
sg24
I0
sbssg25
S"\xd5\x15\x06\xd8\xd3\x12a2\xcf2\xb6Z\n'\xf6\xf3"
p199
ssS'_home_kelvin__virtualenvs_matienv_lib_python2_7_site-packages_django_core_mail_message'
p200
(dp201
g6
(dp202
g8
S'_home_kelvin__virtualenvs_matienv_lib_python2_7_site-packages_django_core_mail_message.html'
p203
sg10
S'/home/kelvin/.virtualenvs/matienv/lib/python2.7/site-packages/django/core/mail/message'
p204
sg12
g13
(g14
g15
NtRp205
(dp206
g18
I1
sg19
I0
sg20
I217
sg21
I0
sg22
I0
sg23
I163
sg24
I0
sbssg25
S'\xdf\xf2\x0e\xacu\xd8w\x8ea\x86\xc4ig\x02\xc0\xc3'
p207
ssS'_home_kelvin__virtualenvs_matienv_lib_python2_7_site-packages_rest_framework_renderers'
p208
(dp209
g6
(dp210
g8
S'_home_kelvin__virtualenvs_matienv_lib_python2_7_site-packages_rest_framework_renderers.html'
p211
sg10
S'/home/kelvin/.virtualenvs/matienv/lib/python2.7/site-packages/rest_framework/renderers'
p212
sg12
g13
(g14
g15
NtRp213
(dp214
g18
I1
sg19
I0
sg20
I303
sg21
I0
sg22
I0
sg23
I202
sg24
I0
sbssg25
S'\xd2\xc4\xad\xe6L\x19j>B\x020\x19\xaevd_'
p215
ssS'map___init__'
p216
(dp217
S'index'
p218
(dp219
S'html_filename'
p220
S'map___init__.html'
p221
sS'name'
p222
S'map/__init__'
p223
sS'nums'
p224
g13
(g14
g15
NtRp225
(dp226
g18
I1
sg19
I0
sg20
I0
sg21
I0
sg22
I0
sg23
I0
sg24
I0
sbssS'hash'
p227
S'\xca\xf5\x9f\x7f\x88\xdfa\x831|T\x1d\xbc}\xa5v'
p228
ssS'_home_kelvin__virtualenvs_matienv_lib_python2_7_site-packages_django_utils_html'
p229
(dp230
g6
(dp231
g8
S'_home_kelvin__virtualenvs_matienv_lib_python2_7_site-packages_django_utils_html.html'
p232
sg10
S'/home/kelvin/.virtualenvs/matienv/lib/python2.7/site-packages/django/utils/html'
p233
sg12
g13
(g14
g15
NtRp234
(dp235
g18
I1
sg19
I0
sg20
I172
sg21
I0
sg22
I0
sg23
I118
sg24
I0
sbssg25
S'\xb6\x95\xef\xd4\xe8a\xca\x96|\x99\xd4\xa3\x1dv8\xf2'
p236
ssS'_home_kelvin__virtualenvs_matienv_lib_python2_7_site-packages_django_db___init__'
p237
(dp238
g6
(dp239
g31
S'_home_kelvin__virtualenvs_matienv_lib_python2_7_site-packages_django_db___init__.html'
p240
sg33
S'/home/kelvin/.virtualenvs/matienv/lib/python2.7/site-packages/django/db/__init__'
p241
sg35
g13
(g14
g15
NtRp242
(dp243
g18
I1
sg19
I0
sg20
I45
sg21
I0
sg22
I0
sg23
I18
sg24
I0
sbssg25
S'\xfb\x83\x8cb\x84aHT\xdd\xe2\xd5\xa7\x89\x9b}8'
p244
ssS'_home_kelvin__virtualenvs_matienv_lib_python2_7_site-packages_rest_framework_settings'
p245
(dp246
g6
(dp247
g8
S'_home_kelvin__virtualenvs_matienv_lib_python2_7_site-packages_rest_framework_settings.html'
p248
sg10
S'/home/kelvin/.virtualenvs/matienv/lib/python2.7/site-packages/rest_framework/settings'
p249
sg12
g13
(g14
g15
NtRp250
(dp251
g18
I1
sg19
I0
sg20
I43
sg21
I0
sg22
I0
sg23
I6
sg24
I0
sbssg25
S'\xb2\xfc3\xd4R;#\xbfp\x1cl\xa1U#\x89\xd8'
p252
ssS'mati_wsgi'
p253
(dp254
g218
(dp255
g220
S'mati_wsgi.html'
p256
sg222
S'mati/wsgi'
p257
sg224
g13
(g14
g15
NtRp258
(dp259
g18
I1
sg19
I0
sg20
I4
sg21
I0
sg22
I0
sg23
I4
sg24
I0
sbssg227
S'vU7i\x0f\x1ew\xf9\xba\x18c%\xae\x04\xf1\x12'
p260
ssS'_home_kelvin__virtualenvs_matienv_lib_python2_7_site-packages_django_utils_version'
p261
(dp262
g6
(dp263
g8
S'_home_kelvin__virtualenvs_matienv_lib_python2_7_site-packages_django_utils_version.html'
p264
sg10
S'/home/kelvin/.virtualenvs/matienv/lib/python2.7/site-packages/django/utils/version'
p265
sg12
g13
(g14
g15
NtRp266
(dp267
g18
I1
sg19
I0
sg20
I29
sg21
I0
sg22
I0
sg23
I15
sg24
I0
sbssg25
S'(\xf2@\x12{\x98\xeb\xf0L\x9ct\xec\x05Ap('
p268
ssS'_home_kelvin__virtualenvs_matienv_lib_python2_7_site-packages_django_db_backends_postgresql_psycopg2_introspection'
p269
(dp270
g6
(dp271
g8
S'_home_kelvin__virtualenvs_matienv_lib_python2_7_site-packages_django_db_backends_postgresql_psycopg2_introspection.html'
p272
sg10
S'/home/kelvin/.virtualenvs/matienv/lib/python2.7/site-packages/django/db/backends/postgresql_psycopg2/introspection'
p273
sg12
g13
(g14
g15
NtRp274
(dp275
g18
I1
sg19
I0
sg20
I33
sg21
I0
sg22
I0
sg23
I20
sg24
I0
sbssg25
S'DA\x85xI^NiP\x8a\xfa\x08\xa6\xa2NI'
p276
ssS'_home_kelvin__virtualenvs_matienv_lib_python2_7_site-packages_rest_framework_response'
p277
(dp278
g6
(dp279
g8
S'_home_kelvin__virtualenvs_matienv_lib_python2_7_site-packages_rest_framework_response.html'
p280
sg10
S'/home/kelvin/.virtualenvs/matienv/lib/python2.7/site-packages/rest_framework/response'
p281
sg12
g13
(g14
g15
NtRp282
(dp283
g18
I1
sg19
I0
sg20
I47
sg21
I0
sg22
I0
sg23
I35
sg24
I0
sbssg25
S'\x8d\x1df/T\x87.\xde\x0f\xdc\xd8f6:\xa1\x04'
p284
ssS'_home_kelvin__virtualenvs_matienv_lib_python2_7_site-packages_django_template_defaultfilters'
p285
(dp286
g6
(dp287
g8
S'_home_kelvin__virtualenvs_matienv_lib_python2_7_site-packages_django_template_defaultfilters.html'
p288
sg10
S'/home/kelvin/.virtualenvs/matienv/lib/python2.7/site-packages/django/template/defaultfilters'
p289
sg12
g13
(g14
g15
NtRp290
(dp291
g18
I1
sg19
I0
sg20
I454
sg21
I0
sg22
I0
sg23
I324
sg24
I0
sbssg25
S'\xd0&\x04\xbf{\x92\x84\xb7\x84)\xd37a\xca\xd6\xf2'
p292
ssS'_home_kelvin__virtualenvs_matienv_lib_python2_7_site-packages_django_contrib_messages_middleware'
p293
(dp294
g29
(dp295
g31
S'_home_kelvin__virtualenvs_matienv_lib_python2_7_site-packages_django_contrib_messages_middleware.html'
p296
sg33
S'/home/kelvin/.virtualenvs/matienv/lib/python2.7/site-packages/django/contrib/messages/middleware'
p297
sg35
g13
(g14
g15
NtRp298
(dp299
g18
I1
sg19
I0
sg20
I11
sg21
I0
sg22
I0
sg23
I1
sg24
I0
sbssg38
S'\xb3^Gb\x9c\x16p\xcf\xc1\x94J\x89,\xf2\x06\xfc'
p300
ssS'_home_kelvin__virtualenvs_matienv_lib_python2_7_site-packages_django_conf_urls___init__'
p301
(dp302
g6
(dp303
g8
S'_home_kelvin__virtualenvs_matienv_lib_python2_7_site-packages_django_conf_urls___init__.html'
p304
sg10
S'/home/kelvin/.virtualenvs/matienv/lib/python2.7/site-packages/django/conf/urls/__init__'
p305
sg12
g13
(g14
g15
NtRp306
(dp307
g18
I1
sg19
I0
sg20
I42
sg21
I0
sg22
I0
sg23
I4
sg24
I0
sbssg25
S'\xa7\x0ePg\xb0\x829\x16\x0e\xd9\xa5\x00,\xda\x88\n'
p308
ssS'dimaps_views_technicaldata_views'
p309
(dp310
g218
(dp311
g8
S'dimaps_views_technicaldata_views.html'
p312
sg10
S'dimaps/views/technicaldata_views'
p313
sg12
g13
(g14
g15
NtRp314
(dp315
g18
I1
sg19
I0
sg20
I41
sg21
I0
sg22
I0
sg23
I7
sg24
I0
sbssg227
S'\xde4\xe9\x98\x03~g\xbc4ho\xa2\xd2\xb8?v'
p316
ssS'_home_kelvin__virtualenvs_matienv_lib_python2_7_site-packages_django_contrib_sessions_backends_db'
p317
(dp318
g6
(dp319
g31
S'_home_kelvin__virtualenvs_matienv_lib_python2_7_site-packages_django_contrib_sessions_backends_db.html'
p320
sg33
S'/home/kelvin/.virtualenvs/matienv/lib/python2.7/site-packages/django/contrib/sessions/backends/db'
p321
sg35
g13
(g14
g15
NtRp322
(dp323
g18
I1
sg19
I0
sg20
I53
sg21
I0
sg22
I0
sg23
I37
sg24
I0
sbssg25
S'\xeb\xf0Z\xa2]:c\\\xaf0{\xe9\xed\xf48\xbb'
p324
ssS'_home_kelvin__virtualenvs_matienv_lib_python2_7_site-packages_django_core_paginator'
p325
(dp326
g6
(dp327
g8
S'_home_kelvin__virtualenvs_matienv_lib_python2_7_site-packages_django_core_paginator.html'
p328
sg10
S'/home/kelvin/.virtualenvs/matienv/lib/python2.7/site-packages/django/core/paginator'
p329
sg12
g13
(g14
g15
NtRp330
(dp331
g18
I1
sg19
I0
sg20
I90
sg21
I0
sg22
I0
sg23
I57
sg24
I0
sbssg25
S'\xba\x166\xa1`>\xf5\x99\x83\xc2\xbeN\xf9\xf0\xca;'
p332
ssS'_home_kelvin__virtualenvs_matienv_lib_python2_7_site-packages_django_db_models_sql_aggregates'
p333
(dp334
g6
(dp335
g8
S'_home_kelvin__virtualenvs_matienv_lib_python2_7_site-packages_django_db_models_sql_aggregates.html'
p336
sg10
S'/home/kelvin/.virtualenvs/matienv/lib/python2.7/site-packages/django/db/models/sql/aggregates'
p337
sg12
g13
(g14
g15
NtRp338
(dp339
g18
I1
sg19
I0
sg20
I61
sg21
I0
sg22
I0
sg23
I30
sg24
I0
sbssg25
S'\xc4\x1d\xd6\r\xc7_N\x8aU\xa8\xb2\x17y\x06\x89_'
p340
ssS'_home_kelvin__virtualenvs_matienv_lib_python2_7_site-packages_django_utils_timezone'
p341
(dp342
g6
(dp343
g8
S'_home_kelvin__virtualenvs_matienv_lib_python2_7_site-packages_django_utils_timezone.html'
p344
sg10
S'/home/kelvin/.virtualenvs/matienv/lib/python2.7/site-packages/django/utils/timezone'
p345
sg12
g13
(g14
g15
NtRp346
(dp347
g18
I1
sg19
I0
sg20
I124
sg21
I0
sg22
I0
sg23
I73
sg24
I0
sbssg25
S'\xd3\x8c\x80\x88`\xe7\xc6\xb8a\x10\x8bT\x98d\x9b\xa7'
p348
ssS'mati_settings'
p349
(dp350
g218
(dp351
g220
S'mati_settings.html'
p352
sg222
S'mati/settings'
p353
sg224
g13
(g14
g15
NtRp354
(dp355
g18
I1
sg19
I0
sg20
I25
sg21
I0
sg22
I0
sg23
I0
sg24
I0
sbssg227
S'\x0enx\xb1Y\x8d\x19\xf0\xbc\x83\xa3C\x86}X\x86'
p356
ssS'_home_kelvin__virtualenvs_matienv_lib_python2_7_site-packages_django_contrib_messages_storage_session'
p357
(dp358
g29
(dp359
g31
S'_home_kelvin__virtualenvs_matienv_lib_python2_7_site-packages_django_contrib_messages_storage_session.html'
p360
sg33
S'/home/kelvin/.virtualenvs/matienv/lib/python2.7/site-packages/django/contrib/messages/storage/session'
p361
sg35
g13
(g14
g15
NtRp362
(dp363
g18
I1
sg19
I0
sg20
I23
sg21
I0
sg22
I0
sg23
I10
sg24
I0
sbssg38
S'\xa3\x90\x83\xacq*\x12\xe6p\x08\xd68\xb7\x1f\x97\xf7'
p364
ssS'_home_kelvin__virtualenvs_matienv_lib_python2_7_site-packages_django_test___init__'
p365
(dp366
g6
(dp367
g8
S'_home_kelvin__virtualenvs_matienv_lib_python2_7_site-packages_django_test___init__.html'
p368
sg10
S'/home/kelvin/.virtualenvs/matienv/lib/python2.7/site-packages/django/test/__init__'
p369
sg12
g13
(g14
g15
NtRp370
(dp371
g18
I1
sg19
I0
sg20
I3
sg21
I0
sg22
I0
sg23
I0
sg24
I0
sbssg25
S'"\x05`\xc0z\xbe\xc3\xcc%\x11z\x17\x1a\x15\x89\xef'
p372
ssS'_home_kelvin__virtualenvs_matienv_lib_python2_7_site-packages_django_core_handlers_base'
p373
(dp374
g6
(dp375
g31
S'_home_kelvin__virtualenvs_matienv_lib_python2_7_site-packages_django_core_handlers_base.html'
p376
sg33
S'/home/kelvin/.virtualenvs/matienv/lib/python2.7/site-packages/django/core/handlers/base'
p377
sg35
g13
(g14
g15
NtRp378
(dp379
g18
I1
sg19
I0
sg20
I159
sg21
I0
sg22
I0
sg23
I72
sg24
I0
sbssg25
S'\xdfd\xab\x01N\xdd 9a\x91E\x19\xf1T\x89n'
p380
ssS'_home_kelvin__virtualenvs_matienv_lib_python2_7_site-packages_django_contrib_contenttypes___init__'
p381
(dp382
g6
(dp383
g8
S'_home_kelvin__virtualenvs_matienv_lib_python2_7_site-packages_django_contrib_contenttypes___init__.html'
p384
sg10
S'/home/kelvin/.virtualenvs/matienv/lib/python2.7/site-packages/django/contrib/contenttypes/__init__'
p385
sg12
g13
(g14
g15
NtRp386
(dp387
g18
I1
sg19
I0
sg20
I0
sg21
I0
sg22
I0
sg23
I0
sg24
I0
sbssg25
S'\xca\xf5\x9f\x7f\x88\xdfa\x831|T\x1d\xbc}\xa5v'
p388
ssS'_home_kelvin__virtualenvs_matienv_lib_python2_7_site-packages_django_template___init__'
p389
(dp390
g6
(dp391
g8
S'_home_kelvin__virtualenvs_matienv_lib_python2_7_site-packages_django_template___init__.html'
p392
sg10
S'/home/kelvin/.virtualenvs/matienv/lib/python2.7/site-packages/django/template/__init__'
p393
sg12
g13
(g14
g15
NtRp394
(dp395
g18
I1
sg19
I0
sg20
I6
sg21
I0
sg22
I0
sg23
I0
sg24
I0
sbssg25
S'\xc2\n\xeb\xe1\x06\xdfW\rFf\x0f\xe9\x95\x8e[#'
p396
ssS'manage'
p397
(dp398
g218
(dp399
g220
S'manage.html'
p400
sg222
g397
sg224
g13
(g14
g15
NtRp401
(dp402
g18
I1
sg19
I0
sg20
I6
sg21
I0
sg22
I0
sg23
I0
sg24
I0
sbssg227
S'\xd7\x95\x04Kj\xc2\xc2\xd6\x9dj\xb5\x02\x96\xe7l3'
p403
ssS'dimaps_views_input_views'
p404
(dp405
g218
(dp406
g8
S'dimaps_views_input_views.html'
p407
sg10
S'dimaps/views/input_views'
p408
sg12
g13
(g14
g15
NtRp409
(dp410
g18
I1
sg19
I0
sg20
I41
sg21
I0
sg22
I0
sg23
I7
sg24
I0
sbssg227
S"\x0c'^\x95:\x06\x13u\xb5\xea\x99\xd4\x83\x08/h"
p411
ssS'_home_kelvin__virtualenvs_matienv_lib_python2_7_site-packages_django_contrib_admin_helpers'
p412
(dp413
g6
(dp414
g8
S'_home_kelvin__virtualenvs_matienv_lib_python2_7_site-packages_django_contrib_admin_helpers.html'
p415
sg10
S'/home/kelvin/.virtualenvs/matienv/lib/python2.7/site-packages/django/contrib/admin/helpers'
p416
sg12
g13
(g14
g15
NtRp417
(dp418
g18
I1
sg19
I0
sg20
I243
sg21
I0
sg22
I0
sg23
I178
sg24
I0
sbssg25
S'\xa0\x1e\xb1\xeb\x89\x94\xf4\x89\x07\t\xfd\x17\x0b\x94\x05\x07'
p419
ssS'_home_kelvin__virtualenvs_matienv_lib_python2_7_site-packages_django_contrib_messages_storage_fallback'
p420
(dp421
g29
(dp422
g31
S'_home_kelvin__virtualenvs_matienv_lib_python2_7_site-packages_django_contrib_messages_storage_fallback.html'
p423
sg33
S'/home/kelvin/.virtualenvs/matienv/lib/python2.7/site-packages/django/contrib/messages/storage/fallback'
p424
sg35
g13
(g14
g15
NtRp425
(dp426
g18
I1
sg19
I0
sg20
I29
sg21
I0
sg22
I0
sg23
I18
sg24
I0
sbssg38
S'{\x9a\x07\x19\xc53v2\xc0\xb7P\xdd\xfa\xe7\xdb\xa9'
p427
ssS'_home_kelvin__virtualenvs_matienv_lib_python2_7_site-packages_django_extensions_migrations_0001_empty'
p428
(dp429
g6
(dp430
g8
S'_home_kelvin__virtualenvs_matienv_lib_python2_7_site-packages_django_extensions_migrations_0001_empty.html'
p431
sg10
S'/home/kelvin/.virtualenvs/matienv/lib/python2.7/site-packages/django_extensions/migrations/0001_empty'
p432
sg12
g13
(g14
g15
NtRp433
(dp434
g18
I1
sg19
I0
sg20
I8
sg21
I0
sg22
I0
sg23
I1
sg24
I0
sbssg25
S'$\x7f#\xa3q\xec>ud\xad_\x8f\xd2(\x94O'
p435
ssS'_home_kelvin__virtualenvs_matienv_lib_python2_7_site-packages_django_contrib_sessions___init__'
p436
(dp437
g6
(dp438
g8
S'_home_kelvin__virtualenvs_matienv_lib_python2_7_site-packages_django_contrib_sessions___init__.html'
p439
sg10
S'/home/kelvin/.virtualenvs/matienv/lib/python2.7/site-packages/django/contrib/sessions/__init__'
p440
sg12
g13
(g14
g15
NtRp441
(dp442
g18
I1
sg19
I0
sg20
I0
sg21
I0
sg22
I0
sg23
I0
sg24
I0
sbssg25
S'\xca\xf5\x9f\x7f\x88\xdfa\x831|T\x1d\xbc}\xa5v'
p443
ssS'_home_kelvin__virtualenvs_matienv_lib_python2_7_site-packages_django_extensions_models'
p444
(dp445
g6
(dp446
g8
S'_home_kelvin__virtualenvs_matienv_lib_python2_7_site-packages_django_extensions_models.html'
p447
sg10
S'/home/kelvin/.virtualenvs/matienv/lib/python2.7/site-packages/django_extensions/models'
p448
sg12
g13
(g14
g15
NtRp449
(dp450
g18
I1
sg19
I0
sg20
I0
sg21
I0
sg22
I0
sg23
I0
sg24
I0
sbssg25
S'\xca\xf5\x9f\x7f\x88\xdfa\x831|T\x1d\xbc}\xa5v'
p451
ssS'map_views___init__'
p452
(dp453
g218
(dp454
g8
S'map_views___init__.html'
p455
sg10
S'map/views/__init__'
p456
sg12
g13
(g14
g15
NtRp457
(dp458
g18
I1
sg19
I0
sg20
I0
sg21
I0
sg22
I0
sg23
I0
sg24
I0
sbssg227
S'\xca\xf5\x9f\x7f\x88\xdfa\x831|T\x1d\xbc}\xa5v'
p459
ssS'_home_kelvin__virtualenvs_matienv_lib_python2_7_site-packages_django_templatetags_static'
p460
(dp461
g6
(dp462
g8
S'_home_kelvin__virtualenvs_matienv_lib_python2_7_site-packages_django_templatetags_static.html'
p463
sg10
S'/home/kelvin/.virtualenvs/matienv/lib/python2.7/site-packages/django/templatetags/static'
p464
sg12
g13
(g14
g15
NtRp465
(dp466
g18
I1
sg19
I0
sg20
I68
sg21
I0
sg22
I0
sg23
I47
sg24
I0
sbssg25
S'\xe5\xc73\x11\xc5\xe3\x90A/1\xc5\x86O/\x8e7'
p467
ssS'_home_kelvin__virtualenvs_matienv_lib_python2_7_site-packages_south_v2'
p468
(dp469
g6
(dp470
g8
S'_home_kelvin__virtualenvs_matienv_lib_python2_7_site-packages_south_v2.html'
p471
sg10
S'/home/kelvin/.virtualenvs/matienv/lib/python2.7/site-packages/south/v2'
p472
sg12
g13
(g14
g15
NtRp473
(dp474
g18
I1
sg19
I0
sg20
I12
sg21
I0
sg22
I0
sg23
I3
sg24
I0
sbssg25
S'\xd9\x12R\xcc8\x01\xe4\xf2~9)\xcb\x117]\xfd'
p475
ssS'_home_kelvin__virtualenvs_matienv_lib_python2_7_site-packages_django_contrib_auth_decorators'
p476
(dp477
g6
(dp478
g31
S'_home_kelvin__virtualenvs_matienv_lib_python2_7_site-packages_django_contrib_auth_decorators.html'
p479
sg33
S'/home/kelvin/.virtualenvs/matienv/lib/python2.7/site-packages/django/contrib/auth/decorators'
p480
sg35
g13
(g14
g15
NtRp481
(dp482
g18
I1
sg19
I0
sg20
I36
sg21
I0
sg22
I0
sg23
I8
sg24
I0
sbssg25
S'$\xeb\x1a\xe8b<?43\xc4>\x9e\x10 \xe9\xda'
p483
ssS'_home_kelvin__virtualenvs_matienv_lib_python2_7_site-packages_proxy_server_decorators'
p484
(dp485
g6
(dp486
g31
S'_home_kelvin__virtualenvs_matienv_lib_python2_7_site-packages_proxy_server_decorators.html'
p487
sg33
S'/home/kelvin/.virtualenvs/matienv/lib/python2.7/site-packages/proxy_server/decorators'
p488
sg35
g13
(g14
g15
NtRp489
(dp490
g18
I1
sg19
I0
sg20
I56
sg21
I0
sg22
I0
sg23
I32
sg24
I0
sbssg25
S'\xb5\x8f\xf5\xa1\x83\xfdE\x08A\xf1\x17O\x15\xdf\xa5u'
p491
ssS'dimaps_views_serviceconsumer_views'
p492
(dp493
g218
(dp494
g8
S'dimaps_views_serviceconsumer_views.html'
p495
sg10
S'dimaps/views/serviceconsumer_views'
p496
sg12
g13
(g14
g15
NtRp497
(dp498
g18
I1
sg19
I0
sg20
I41
sg21
I0
sg22
I0
sg23
I7
sg24
I0
sbssg227
S'o\x80PQ}\x18\x99\x1c.\xfd\x8e\xa1R\xda\xfdk'
p499
ssS'_home_kelvin__virtualenvs_matienv_lib_python2_7_site-packages_django_contrib_sites_models'
p500
(dp501
g6
(dp502
g8
S'_home_kelvin__virtualenvs_matienv_lib_python2_7_site-packages_django_contrib_sites_models.html'
p503
sg10
S'/home/kelvin/.virtualenvs/matienv/lib/python2.7/site-packages/django/contrib/sites/models'
p504
sg12
g13
(g14
g15
NtRp505
(dp506
g18
I1
sg19
I0
sg20
I65
sg21
I0
sg22
I0
sg23
I32
sg24
I0
sbssg25
S'\x94s\xa6-\xd7\x985al\xd5\x9dh\xb7l\xcb-'
p507
ssS'_home_kelvin__virtualenvs_matienv_lib_python2_7_site-packages_django_utils_numberformat'
p508
(dp509
g6
(dp510
g8
S'_home_kelvin__virtualenvs_matienv_lib_python2_7_site-packages_django_utils_numberformat.html'
p511
sg10
S'/home/kelvin/.virtualenvs/matienv/lib/python2.7/site-packages/django/utils/numberformat'
p512
sg12
g13
(g14
g15
NtRp513
(dp514
g18
I1
sg19
I0
sg20
I31
sg21
I0
sg22
I0
sg23
I27
sg24
I0
sbssg25
S'\xac_\xe7\xd6\xec"\xf9\xd4B\x8c<\xe2\xd4\xc7[\x8c'
p515
ssS'_home_kelvin__virtualenvs_matienv_lib_python2_7_site-packages_django_contrib_contenttypes_views'
p516
(dp517
g6
(dp518
g8
S'_home_kelvin__virtualenvs_matienv_lib_python2_7_site-packages_django_contrib_contenttypes_views.html'
p519
sg10
S'/home/kelvin/.virtualenvs/matienv/lib/python2.7/site-packages/django/contrib/contenttypes/views'
p520
sg12
g13
(g14
g15
NtRp521
(dp522
g18
I1
sg19
I0
sg20
I50
sg21
I0
sg22
I0
sg23
I43
sg24
I0
sbssg25
S'\xe4\x81W%\xa6\xc9,\xa9jV%,\xc5\x89\x0c\x17'
p523
ssS'_home_kelvin__virtualenvs_matienv_lib_python2_7_site-packages_django_contrib_admin_forms'
p524
(dp525
g6
(dp526
g8
S'_home_kelvin__virtualenvs_matienv_lib_python2_7_site-packages_django_contrib_admin_forms.html'
p527
sg10
S'/home/kelvin/.virtualenvs/matienv/lib/python2.7/site-packages/django/contrib/admin/forms'
p528
sg12
g13
(g14
g15
NtRp529
(dp530
g18
I1
sg19
I0
sg20
I20
sg21
I0
sg22
I0
sg23
I11
sg24
I0
sbssg25
S'`\xba\xc8\xf7\xde\xa2\xd6\nlf\x13  K\xed\x00'
p531
ssS'_home_kelvin__virtualenvs_matienv_lib_python2_7_site-packages_django_contrib_messages_storage_base'
p532
(dp533
g29
(dp534
g31
S'_home_kelvin__virtualenvs_matienv_lib_python2_7_site-packages_django_contrib_messages_storage_base.html'
p535
sg33
S'/home/kelvin/.virtualenvs/matienv/lib/python2.7/site-packages/django/contrib/messages/storage/base'
p536
sg35
g13
(g14
g15
NtRp537
(dp538
g18
I1
sg19
I0
sg20
I83
sg21
I0
sg22
I0
sg23
I47
sg24
I0
sbssg38
S']1W{\x12\x91G\xc0\xd0\xe8P\xb8\x9b\xcb\nM'
p539
ssS'mati_forms'
p540
(dp541
g218
(dp542
g8
S'mati_forms.html'
p543
sg10
S'mati/forms'
p544
sg12
g13
(g14
g15
NtRp545
(dp546
g18
I1
sg19
I0
sg20
I21
sg21
I0
sg22
I0
sg23
I6
sg24
I0
sbssg227
S'\x0fzuA\x89\x15\xe1\xb5\xe41\x1b&\x0c\xb5\xe3\xa8'
p547
ssS'_home_kelvin__virtualenvs_matienv_lib_python2_7_site-packages_south_utils_datetime_utils'
p548
(dp549
g6
(dp550
g8
S'_home_kelvin__virtualenvs_matienv_lib_python2_7_site-packages_south_utils_datetime_utils.html'
p551
sg10
S'/home/kelvin/.virtualenvs/matienv/lib/python2.7/site-packages/south/utils/datetime_utils'
p552
sg12
g13
(g14
g15
NtRp553
(dp554
g18
I1
sg19
I0
sg20
I13
sg21
I0
sg22
I0
sg23
I5
sg24
I0
sbssg25
S'\x0b\x8a6\x9b\x90r\xea#\x14\xaa\x0cwi\xb2*t'
p555
ssS'_home_kelvin__virtualenvs_matienv_lib_python2_7_site-packages_django_utils_html_parser'
p556
(dp557
g6
(dp558
g8
S'_home_kelvin__virtualenvs_matienv_lib_python2_7_site-packages_django_utils_html_parser.html'
p559
sg10
S'/home/kelvin/.virtualenvs/matienv/lib/python2.7/site-packages/django/utils/html_parser'
p560
sg12
g13
(g14
g15
NtRp561
(dp562
g18
I1
sg19
I0
sg20
I82
sg21
I0
sg22
I0
sg23
I74
sg24
I0
sbssg25
S'\x87d\xc4\xd5\x1d\x83\x0c\xb2e#g\xbe1\xa2\x07\xa9'
p563
ssS'_home_kelvin__virtualenvs_matienv_lib_python2_7_site-packages_rest_framework_utils_mediatypes'
p564
(dp565
g6
(dp566
g8
S'_home_kelvin__virtualenvs_matienv_lib_python2_7_site-packages_rest_framework_utils_mediatypes.html'
p567
sg10
S'/home/kelvin/.virtualenvs/matienv/lib/python2.7/site-packages/rest_framework/utils/mediatypes'
p568
sg12
g13
(g14
g15
NtRp569
(dp570
g18
I1
sg19
I0
sg20
I44
sg21
I0
sg22
I0
sg23
I33
sg24
I0
sbssg25
S'\x9f\xc8\x88Ii\xb6\x13\xd1\x8df\xc7\xcd\xb6I\xbbi'
p571
ssS'_home_kelvin__virtualenvs_matienv_lib_python2_7_site-packages_django_core_management_commands_loaddata'
p572
(dp573
g6
(dp574
g8
S'_home_kelvin__virtualenvs_matienv_lib_python2_7_site-packages_django_core_management_commands_loaddata.html'
p575
sg10
S'/home/kelvin/.virtualenvs/matienv/lib/python2.7/site-packages/django/core/management/commands/loaddata'
p576
sg12
g13
(g14
g15
NtRp577
(dp578
g18
I1
sg19
I0
sg20
I163
sg21
I0
sg22
I0
sg23
I127
sg24
I0
sbssg25
S'\xd8\x05B\xd07\xd8b\x87\xc2\xba\x88^oh\x8e\xc7'
p579
ssS'_home_kelvin__virtualenvs_matienv_lib_python2_7_site-packages_django_middleware_cache'
p580
(dp581
g6
(dp582
g8
S'_home_kelvin__virtualenvs_matienv_lib_python2_7_site-packages_django_middleware_cache.html'
p583
sg10
S'/home/kelvin/.virtualenvs/matienv/lib/python2.7/site-packages/django/middleware/cache'
p584
sg12
g13
(g14
g15
NtRp585
(dp586
g18
I1
sg19
I0
sg20
I94
sg21
I0
sg22
I0
sg23
I80
sg24
I0
sbssg25
S'F~\xa1}$ \x8f5\x1e\xf1\x85\xc6\xbd\xfa\x88\x1d'
p587
ssS'dimaps_views'
p588
(dp589
g218
(dp590
g220
S'dimaps_views.html'
p591
sg222
S'dimaps/views'
p592
sg224
g13
(g14
g15
NtRp593
(dp594
g18
I1
sg19
I0
sg20
I1
sg21
I0
sg22
I0
sg23
I1
sg24
I0
sbssg227
S'\xab\x9bR\xdb\x89\xc6Q\x9e\xc8\xd7\xcf\xe4\xc8\xcb\x83\x0f'
p595
ssS'_home_kelvin__virtualenvs_matienv_lib_python2_7_site-packages_django_forms_util'
p596
(dp597
g6
(dp598
g8
S'_home_kelvin__virtualenvs_matienv_lib_python2_7_site-packages_django_forms_util.html'
p599
sg10
S'/home/kelvin/.virtualenvs/matienv/lib/python2.7/site-packages/django/forms/util'
p600
sg12
g13
(g14
g15
NtRp601
(dp602
g18
I1
sg19
I0
sg20
I47
sg21
I0
sg22
I0
sg23
I24
sg24
I0
sbssg25
S'u~T\xed\xff\xdf\x10\xea\x0b\xc8\x97^y\x03)\x03'
p603
ssS'_home_kelvin__virtualenvs_matienv_lib_python2_7_site-packages_six'
p604
(dp605
g6
(dp606
g8
S'_home_kelvin__virtualenvs_matienv_lib_python2_7_site-packages_six.html'
p607
sg10
S'/home/kelvin/.virtualenvs/matienv/lib/python2.7/site-packages/six'
p608
sg12
g13
(g14
g15
NtRp609
(dp610
g18
I1
sg19
I0
sg20
I435
sg21
I0
sg22
I0
sg23
I201
sg24
I0
sbssg25
S'\x162\x0f\x18V:H\xf8Z[\x83\xf6\xc3A\xe24'
p611
ssS'dimaps_views___init__'
p612
(dp613
g218
(dp614
g8
S'dimaps_views___init__.html'
p615
sg10
S'dimaps/views/__init__'
p616
sg12
g13
(g14
g15
NtRp617
(dp618
g18
I1
sg19
I0
sg20
I0
sg21
I0
sg22
I0
sg23
I0
sg24
I0
sbssg227
S'\xca\xf5\x9f\x7f\x88\xdfa\x831|T\x1d\xbc}\xa5v'
p619
ssS'_home_kelvin__virtualenvs_matienv_lib_python2_7_site-packages_django_templatetags___init__'
p620
(dp621
g6
(dp622
g8
S'_home_kelvin__virtualenvs_matienv_lib_python2_7_site-packages_django_templatetags___init__.html'
p623
sg10
S'/home/kelvin/.virtualenvs/matienv/lib/python2.7/site-packages/django/templatetags/__init__'
p624
sg12
g13
(g14
g15
NtRp625
(dp626
g18
I1
sg19
I0
sg20
I0
sg21
I0
sg22
I0
sg23
I0
sg24
I0
sbssg25
S'\xca\xf5\x9f\x7f\x88\xdfa\x831|T\x1d\xbc}\xa5v'
p627
ssS'_home_kelvin__virtualenvs_matienv_lib_python2_7_site-packages_rest_framework_status'
p628
(dp629
g6
(dp630
g8
S'_home_kelvin__virtualenvs_matienv_lib_python2_7_site-packages_rest_framework_status.html'
p631
sg10
S'/home/kelvin/.virtualenvs/matienv/lib/python2.7/site-packages/rest_framework/status'
p632
sg12
g13
(g14
g15
NtRp633
(dp634
g18
I1
sg19
I0
sg20
I56
sg21
I0
sg22
I0
sg23
I5
sg24
I0
sbssg25
S'U\x04`\x98!np}D*b\x17\x85\x053\xbd'
p635
ssS'_home_kelvin__virtualenvs_matienv_lib_python2_7_site-packages_django_contrib_auth_admin'
p636
(dp637
g6
(dp638
g8
S'_home_kelvin__virtualenvs_matienv_lib_python2_7_site-packages_django_contrib_auth_admin.html'
p639
sg10
S'/home/kelvin/.virtualenvs/matienv/lib/python2.7/site-packages/django/contrib/auth/admin'
p640
sg12
g13
(g14
g15
NtRp641
(dp642
g18
I1
sg19
I0
sg20
I96
sg21
I0
sg22
I0
sg23
I45
sg24
I0
sbssg25
S'\xf5\xd8\x8c\xb9\xb8I\xa8\xe8\t9/O\xfcj\xd7\xa7'
p643
ssS'_home_kelvin__virtualenvs_matienv_lib_python2_7_site-packages_django_utils_xmlutils'
p644
(dp645
g6
(dp646
g8
S'_home_kelvin__virtualenvs_matienv_lib_python2_7_site-packages_django_utils_xmlutils.html'
p647
sg10
S'/home/kelvin/.virtualenvs/matienv/lib/python2.7/site-packages/django/utils/xmlutils'
p648
sg12
g13
(g14
g15
NtRp649
(dp650
g18
I1
sg19
I0
sg20
I8
sg21
I0
sg22
I0
sg23
I5
sg24
I0
sbssg25
S'2(\xca\xb7\xc4\x99\xdeW\x96k\xef\xd7\xa3\xda\x8b3'
p651
ssS'map_common_subject_common'
p652
(dp653
g218
(dp654
g8
S'map_common_subject_common.html'
p655
sg10
S'map/common/subject_common'
p656
sg12
g13
(g14
g15
NtRp657
(dp658
g18
I1
sg19
I0
sg20
I8
sg21
I0
sg22
I0
sg23
I5
sg24
I0
sbssg227
S' \x1d\xb80\xaa\xc6I\xb5\xcc\x01i\x9d\x95\x19_l'
p659
ssS'_home_kelvin__virtualenvs_matienv_lib_python2_7_site-packages_south_hacks_django_1_0'
p660
(dp661
g6
(dp662
g8
S'_home_kelvin__virtualenvs_matienv_lib_python2_7_site-packages_south_hacks_django_1_0.html'
p663
sg10
S'/home/kelvin/.virtualenvs/matienv/lib/python2.7/site-packages/south/hacks/django_1_0'
p664
sg12
g13
(g14
g15
NtRp665
(dp666
g18
I1
sg19
I0
sg20
I50
sg21
I0
sg22
I0
sg23
I17
sg24
I0
sbssg25
S'\xcd\xc7@&b\x00\xf8c\x11Jh<\xc5\xb1.\xde'
p667
ssS'_home_kelvin__virtualenvs_matienv_lib_python2_7_site-packages_django_core_context_processors'
p668
(dp669
g6
(dp670
g8
S'_home_kelvin__virtualenvs_matienv_lib_python2_7_site-packages_django_core_context_processors.html'
p671
sg10
S'/home/kelvin/.virtualenvs/matienv/lib/python2.7/site-packages/django/core/context_processors'
p672
sg12
g13
(g14
g15
NtRp673
(dp674
g18
I1
sg19
I0
sg20
I37
sg21
I0
sg22
I0
sg23
I24
sg24
I0
sbssg25
S'\xaf\xd7\xb4\xd6F"`M\xda\xad\xb4\xc8Q\xb96\xce'
p675
ssS'map_api_student_api'
p676
(dp677
g218
(dp678
g8
S'map_api_student_api.html'
p679
sg10
S'map/api/student_api'
p680
sg12
g13
(g14
g15
NtRp681
(dp682
g18
I1
sg19
I0
sg20
I86
sg21
I0
sg22
I0
sg23
I76
sg24
I0
sbssg227
S"B\xa5;@\xe1p'\xb4-kW\xea\x92\xca\x08\xb9"
p683
ssS'_home_kelvin__virtualenvs_matienv_lib_python2_7_site-packages_rest_framework_views'
p684
(dp685
g6
(dp686
g8
S'_home_kelvin__virtualenvs_matienv_lib_python2_7_site-packages_rest_framework_views.html'
p687
sg10
S'/home/kelvin/.virtualenvs/matienv/lib/python2.7/site-packages/rest_framework/views'
p688
sg12
g13
(g14
g15
NtRp689
(dp690
g18
I1
sg19
I0
sg20
I178
sg21
I0
sg22
I0
sg23
I126
sg24
I0
sbssg25
S'}\x1c\x9d\x92k^!\x7f\xbc\x92D\x14tP,\xd8'
p691
ssS'map_views_pensum_views'
p692
(dp693
g218
(dp694
g8
S'map_views_pensum_views.html'
p695
sg10
S'map/views/pensum_views'
p696
sg12
g13
(g14
g15
NtRp697
(dp698
g18
I1
sg19
I0
sg20
I57
sg21
I0
sg22
I0
sg23
I46
sg24
I0
sbssg227
S'\xd1<\xf2$z\xad\x97\xa6jt\x07~\xa6\r\x95\xbb'
p699
ssS'_home_kelvin__virtualenvs_matienv_lib_python2_7_site-packages_django_contrib_messages_api'
p700
(dp701
g6
(dp702
g8
S'_home_kelvin__virtualenvs_matienv_lib_python2_7_site-packages_django_contrib_messages_api.html'
p703
sg10
S'/home/kelvin/.virtualenvs/matienv/lib/python2.7/site-packages/django/contrib/messages/api'
p704
sg12
g13
(g14
g15
NtRp705
(dp706
g18
I1
sg19
I0
sg20
I34
sg21
I0
sg22
I0
sg23
I20
sg24
I0
sbssg25
S'9\x99\x8a)\xc55\n\x9c\xe2\x9c[C\x0b\xf9\xfd\xf9'
p707
ssS'map_common_teacher_common'
p708
(dp709
g218
(dp710
g31
S'map_common_teacher_common.html'
p711
sg33
S'map/common/teacher_common'
p712
sg35
g13
(g14
g15
NtRp713
(dp714
g18
I1
sg19
I0
sg20
I16
sg21
I0
sg22
I0
sg23
I8
sg24
I0
sbssg227
S'f\xe9\x14u\xa4?e\xc8\xffPc\xceI$\xf16'
p715
ssS'_home_kelvin__virtualenvs_matienv_lib_python2_7_site-packages_django_conf___init__'
p716
(dp717
g6
(dp718
g8
S'_home_kelvin__virtualenvs_matienv_lib_python2_7_site-packages_django_conf___init__.html'
p719
sg10
S'/home/kelvin/.virtualenvs/matienv/lib/python2.7/site-packages/django/conf/__init__'
p720
sg12
g13
(g14
g15
NtRp721
(dp722
g18
I1
sg19
I0
sg20
I101
sg21
I0
sg22
I0
sg23
I33
sg24
I0
sbssg25
S'6\xdf\xa2\x9d\xa3\xa0\xdbQ:\xe8\x16\xd4\x8f\xeb\x11\xa5'
p723
ssS'_home_kelvin__virtualenvs_matienv_lib_python2_7_site-packages_django_template_context'
p724
(dp725
g6
(dp726
g8
S'_home_kelvin__virtualenvs_matienv_lib_python2_7_site-packages_django_template_context.html'
p727
sg10
S'/home/kelvin/.virtualenvs/matienv/lib/python2.7/site-packages/django/template/context'
p728
sg12
g13
(g14
g15
NtRp729
(dp730
g18
I1
sg19
I0
sg20
I104
sg21
I0
sg22
I0
sg23
I72
sg24
I0
sbssg25
S'p<;=\xee{\x17\x93\xb9\t\xb0R8r\xd2N'
p731
ssS'_home_kelvin__virtualenvs_matienv_lib_python2_7_site-packages_django_template_loader'
p732
(dp733
g6
(dp734
g8
S'_home_kelvin__virtualenvs_matienv_lib_python2_7_site-packages_django_template_loader.html'
p735
sg10
S'/home/kelvin/.virtualenvs/matienv/lib/python2.7/site-packages/django/template/loader'
p736
sg12
g13
(g14
g15
NtRp737
(dp738
g18
I1
sg19
I0
sg20
I97
sg21
I0
sg22
I0
sg23
I73
sg24
I0
sbssg25
S'\xbeh\x879Mt\xae\xb4\xbek0,>s\xb8%'
p739
ssS'_home_kelvin__virtualenvs_matienv_lib_python2_7_site-packages_django_core_mail_utils'
p740
(dp741
g6
(dp742
g8
S'_home_kelvin__virtualenvs_matienv_lib_python2_7_site-packages_django_core_mail_utils.html'
p743
sg10
S'/home/kelvin/.virtualenvs/matienv/lib/python2.7/site-packages/django/core/mail/utils'
p744
sg12
g13
(g14
g15
NtRp745
(dp746
g18
I1
sg19
I0
sg20
I9
sg21
I0
sg22
I0
sg23
I4
sg24
I0
sbssg25
S'1;F\xfb\xb1\rUh=1\x8b}\x9c3\xc3\xbf'
p747
ssS'map_common_pensum_common'
p748
(dp749
g218
(dp750
g31
S'map_common_pensum_common.html'
p751
sg33
S'map/common/pensum_common'
p752
sg35
g13
(g14
g15
NtRp753
(dp754
g18
I1
sg19
I0
sg20
I44
sg21
I0
sg22
I0
sg23
I31
sg24
I0
sbssg227
S'\xb5\xc0\xd3y\x06\xb0m\x93^\xd9\xae[\xb7#\xc9w'
p755
ssS'_home_kelvin__virtualenvs_matienv_lib_python2_7_site-packages_django_utils_itercompat'
p756
(dp757
g6
(dp758
g8
S'_home_kelvin__virtualenvs_matienv_lib_python2_7_site-packages_django_utils_itercompat.html'
p759
sg10
S'/home/kelvin/.virtualenvs/matienv/lib/python2.7/site-packages/django/utils/itercompat'
p760
sg12
g13
(g14
g15
NtRp761
(dp762
g18
I1
sg19
I0
sg20
I17
sg21
I0
sg22
I0
sg23
I5
sg24
I0
sbssg25
S'\x19\xe0#`\\\x99N\xed\xb1\xb6\xad#\xb9\xd1\xb8}'
p763
ssS'dimaps_views_operation_views'
p764
(dp765
g218
(dp766
g8
S'dimaps_views_operation_views.html'
p767
sg10
S'dimaps/views/operation_views'
p768
sg12
g13
(g14
g15
NtRp769
(dp770
g18
I1
sg19
I0
sg20
I41
sg21
I0
sg22
I0
sg23
I7
sg24
I0
sbssg227
S'\xbc\xdf\r\xf7\xdc\xc5\xaa\xc8|\xde\x10\x14\xec!#{'
p771
ssS'_home_kelvin__virtualenvs_matienv_lib_python2_7_site-packages_django_contrib_admin_models'
p772
(dp773
g6
(dp774
g8
S'_home_kelvin__virtualenvs_matienv_lib_python2_7_site-packages_django_contrib_admin_models.html'
p775
sg10
S'/home/kelvin/.virtualenvs/matienv/lib/python2.7/site-packages/django/contrib/admin/models'
p776
sg12
g13
(g14
g15
NtRp777
(dp778
g18
I1
sg19
I0
sg20
I57
sg21
I0
sg22
I0
sg23
I21
sg24
I0
sbssg25
S'\xf9\xe4mx\x95\x0c(\xf3\xbb\x1ce\x97\xfet<i'
p779
ssS'_home_kelvin__virtualenvs_matienv_lib_python2_7_site-packages_django_contrib___init__'
p780
(dp781
g6
(dp782
g8
S'_home_kelvin__virtualenvs_matienv_lib_python2_7_site-packages_django_contrib___init__.html'
p783
sg10
S'/home/kelvin/.virtualenvs/matienv/lib/python2.7/site-packages/django/contrib/__init__'
p784
sg12
g13
(g14
g15
NtRp785
(dp786
g18
I1
sg19
I0
sg20
I0
sg21
I0
sg22
I0
sg23
I0
sg24
I0
sbssg25
S'\xca\xf5\x9f\x7f\x88\xdfa\x831|T\x1d\xbc}\xa5v'
p787
ssS'_home_kelvin__virtualenvs_matienv_lib_python2_7_site-packages_bootstrapform_meta'
p788
(dp789
g6
(dp790
g8
S'_home_kelvin__virtualenvs_matienv_lib_python2_7_site-packages_bootstrapform_meta.html'
p791
sg10
S'/home/kelvin/.virtualenvs/matienv/lib/python2.7/site-packages/bootstrapform/meta'
p792
sg12
g13
(g14
g15
NtRp793
(dp794
g18
I1
sg19
I0
sg20
I2
sg21
I0
sg22
I0
sg23
I0
sg24
I0
sbssg25
S'\x19\xa3\xbb\xf8\xc29\xd6\x07\xf9\xa5r4\x18\xb7\x9b\x8d'
p795
ssS'_home_kelvin__virtualenvs_matienv_lib_python2_7_site-packages_rest_framework_authtoken___init__'
p796
(dp797
g6
(dp798
g8
S'_home_kelvin__virtualenvs_matienv_lib_python2_7_site-packages_rest_framework_authtoken___init__.html'
p799
sg10
S'/home/kelvin/.virtualenvs/matienv/lib/python2.7/site-packages/rest_framework/authtoken/__init__'
p800
sg12
g13
(g14
g15
NtRp801
(dp802
g18
I1
sg19
I0
sg20
I0
sg21
I0
sg22
I0
sg23
I0
sg24
I0
sbssg25
S'\xca\xf5\x9f\x7f\x88\xdfa\x831|T\x1d\xbc}\xa5v'
p803
ssS'_home_kelvin__virtualenvs_matienv_lib_python2_7_site-packages_django_views_generic_edit'
p804
(dp805
g6
(dp806
g8
S'_home_kelvin__virtualenvs_matienv_lib_python2_7_site-packages_django_views_generic_edit.html'
p807
sg10
S'/home/kelvin/.virtualenvs/matienv/lib/python2.7/site-packages/django/views/generic/edit'
p808
sg12
g13
(g14
g15
NtRp809
(dp810
g18
I1
sg19
I0
sg20
I111
sg21
I0
sg22
I0
sg23
I61
sg24
I0
sbssg25
S'\xe7\x8f3s\xe3[a8\xc67\x18\xbc\xcf\xd3W\xcc'
p811
ssS'_home_kelvin__virtualenvs_matienv_lib_python2_7_site-packages_django_forms_widgets'
p812
(dp813
g6
(dp814
g8
S'_home_kelvin__virtualenvs_matienv_lib_python2_7_site-packages_django_forms_widgets.html'
p815
sg10
S'/home/kelvin/.virtualenvs/matienv/lib/python2.7/site-packages/django/forms/widgets'
p816
sg12
g13
(g14
g15
NtRp817
(dp818
g18
I1
sg19
I0
sg20
I522
sg21
I0
sg22
I0
sg23
I320
sg24
I0
sbssg25
S';lp\xeb\x93\x12\x10\xa3\xfe\\\xb1\x97\xaa>B\xc8'
p819
ssS'_home_kelvin__virtualenvs_matienv_lib_python2_7_site-packages_psycopg2__range'
p820
(dp821
g6
(dp822
g8
S'_home_kelvin__virtualenvs_matienv_lib_python2_7_site-packages_psycopg2__range.html'
p823
sg10
S'/home/kelvin/.virtualenvs/matienv/lib/python2.7/site-packages/psycopg2/_range'
p824
sg12
g13
(g14
g15
NtRp825
(dp826
g18
I1
sg19
I0
sg20
I235
sg21
I0
sg22
I0
sg23
I149
sg24
I0
sbssg25
S'\xbc\xea\xb9\xdb\xe8\x1dR\x15\xa7\xd7\xac\xa1S\x12\xd7\x07'
p827
ssS'_home_kelvin__virtualenvs_matienv_lib_python2_7_site-packages_south_management_commands_migrate'
p828
(dp829
g6
(dp830
g8
S'_home_kelvin__virtualenvs_matienv_lib_python2_7_site-packages_south_management_commands_migrate.html'
p831
sg10
S'/home/kelvin/.virtualenvs/matienv/lib/python2.7/site-packages/south/management/commands/migrate'
p832
sg12
g13
(g14
g15
NtRp833
(dp834
g18
I1
sg19
I0
sg20
I126
sg21
I0
sg22
I0
sg23
I90
sg24
I0
sbssg25
S"rE\x94c\x12us\xd8\xf2?T\xd7'\xd0\x04p"
p835
ssS'_home_kelvin__virtualenvs_matienv_lib_python2_7_site-packages_rest_framework_serializers'
p836
(dp837
g6
(dp838
g8
S'_home_kelvin__virtualenvs_matienv_lib_python2_7_site-packages_rest_framework_serializers.html'
p839
sg10
S'/home/kelvin/.virtualenvs/matienv/lib/python2.7/site-packages/rest_framework/serializers'
p840
sg12
g13
(g14
g15
NtRp841
(dp842
g18
I1
sg19
I0
sg20
I562
sg21
I0
sg22
I0
sg23
I463
sg24
I0
sbssg25
S'QA\x1f\xcc\x8f[^\xfe#U\x9c\t\xd6\x82wI'
p843
ssS'_home_kelvin__virtualenvs_matienv_lib_python2_7_site-packages_django_db_models_sql_datastructures'
p844
(dp845
g6
(dp846
g8
S'_home_kelvin__virtualenvs_matienv_lib_python2_7_site-packages_django_db_models_sql_datastructures.html'
p847
sg10
S'/home/kelvin/.virtualenvs/matienv/lib/python2.7/site-packages/django/db/models/sql/datastructures'
p848
sg12
g13
(g14
g15
NtRp849
(dp850
g18
I1
sg19
I0
sg20
I34
sg21
I0
sg22
I0
sg23
I18
sg24
I0
sbssg25
S'\xa4\xc3\xb0~\n\x90 \x96\x85sR\x14r\xa8\xff\x81'
p851
ssS'_home_kelvin__virtualenvs_matienv_lib_python2_7_site-packages_django_core_handlers___init__'
p852
(dp853
g6
(dp854
g8
S'_home_kelvin__virtualenvs_matienv_lib_python2_7_site-packages_django_core_handlers___init__.html'
p855
sg10
S'/home/kelvin/.virtualenvs/matienv/lib/python2.7/site-packages/django/core/handlers/__init__'
p856
sg12
g13
(g14
g15
NtRp857
(dp858
g18
I1
sg19
I0
sg20
I0
sg21
I0
sg22
I0
sg23
I0
sg24
I0
sbssg25
S'\xca\xf5\x9f\x7f\x88\xdfa\x831|T\x1d\xbc}\xa5v'
p859
ssS'_home_kelvin__virtualenvs_matienv_lib_python2_7_site-packages_django_utils_dateformat'
p860
(dp861
g6
(dp862
g8
S'_home_kelvin__virtualenvs_matienv_lib_python2_7_site-packages_django_utils_dateformat.html'
p863
sg10
S'/home/kelvin/.virtualenvs/matienv/lib/python2.7/site-packages/django/utils/dateformat'
p864
sg12
g13
(g14
g15
NtRp865
(dp866
g18
I1
sg19
I0
sg20
I181
sg21
I0
sg22
I0
sg23
I119
sg24
I0
sbssg25
S'\xf2\xe4\xae\x83\xc8uL]\xa9;@\xf9-\x1e\x9b\xeb'
p867
ssS'_home_kelvin__virtualenvs_matienv_lib_python2_7_distutils___init__'
p868
(dp869
g6
(dp870
g8
S'_home_kelvin__virtualenvs_matienv_lib_python2_7_distutils___init__.html'
p871
sg10
S'/home/kelvin/.virtualenvs/matienv/lib/python2.7/distutils/__init__'
p872
sg12
g13
(g14
g15
NtRp873
(dp874
g18
I1
sg19
I0
sg20
I74
sg21
I0
sg22
I0
sg23
I42
sg24
I0
sbssg25
S"\xfa\x16\x98\xd6\x90)7\xe2\xc4\x81\xd3\nJs]'"
p875
ssS'populate_db'
p876
(dp877
g218
(dp878
g220
S'populate_db.html'
p879
sg222
g876
sg224
g13
(g14
g15
NtRp880
(dp881
g18
I1
sg19
I0
sg20
I110
sg21
I0
sg22
I0
sg23
I110
sg24
I0
sbssg227
S'\x8cP\xda&\xfdF\xb2\xedt\x879_\xea\x9a\xb5!'
p882
ssS'_home_kelvin__virtualenvs_matienv_lib_python2_7_site-packages_django_contrib_admin_validation'
p883
(dp884
g6
(dp885
g8
S'_home_kelvin__virtualenvs_matienv_lib_python2_7_site-packages_django_contrib_admin_validation.html'
p886
sg10
S'/home/kelvin/.virtualenvs/matienv/lib/python2.7/site-packages/django/contrib/admin/validation'
p887
sg12
g13
(g14
g15
NtRp888
(dp889
g18
I1
sg19
I0
sg20
I254
sg21
I0
sg22
I0
sg23
I209
sg24
I0
sbssg25
S'\xe83\x90\x100+\x1f#\xce\xa0\xfc\xd0o\xb4\r\xa2'
p890
ssS'_home_kelvin__virtualenvs_matienv_lib_python2_7_site-packages_django_core_management_commands_flush'
p891
(dp892
g6
(dp893
g8
S'_home_kelvin__virtualenvs_matienv_lib_python2_7_site-packages_django_core_management_commands_flush.html'
p894
sg10
S'/home/kelvin/.virtualenvs/matienv/lib/python2.7/site-packages/django/core/management/commands/flush'
p895
sg12
g13
(g14
g15
NtRp896
(dp897
g18
I1
sg19
I0
sg20
I51
sg21
I0
sg22
I0
sg23
I35
sg24
I0
sbssg25
S'\xaf6\x103\x06\xef\t\xd4\xa4Z\x9d\x84\x02\xcf5O'
p898
ssS'_home_kelvin__virtualenvs_matienv_lib_python2_7_site-packages_django_extensions_migrations___init__'
p899
(dp900
g6
(dp901
g8
S'_home_kelvin__virtualenvs_matienv_lib_python2_7_site-packages_django_extensions_migrations___init__.html'
p902
sg10
S'/home/kelvin/.virtualenvs/matienv/lib/python2.7/site-packages/django_extensions/migrations/__init__'
p903
sg12
g13
(g14
g15
NtRp904
(dp905
g18
I1
sg19
I0
sg20
I0
sg21
I0
sg22
I0
sg23
I0
sg24
I0
sbssg25
S'\xca\xf5\x9f\x7f\x88\xdfa\x831|T\x1d\xbc}\xa5v'
p906
ssS'_home_kelvin__virtualenvs_matienv_lib_python2_7_site-packages_django_utils_termcolors'
p907
(dp908
g6
(dp909
g8
S'_home_kelvin__virtualenvs_matienv_lib_python2_7_site-packages_django_utils_termcolors.html'
p910
sg10
S'/home/kelvin/.virtualenvs/matienv/lib/python2.7/site-packages/django/utils/termcolors'
p911
sg12
g13
(g14
g15
NtRp912
(dp913
g18
I1
sg19
I0
sg20
I57
sg21
I0
sg22
I0
sg23
I40
sg24
I0
sbssg25
S'\xd7\xa8,\x9e\xfa\xda\xaf\t8h\xcf\xbc+^\x06\xa0'
p914
ssS'_home_kelvin__virtualenvs_matienv_lib_python2_7_site-packages_south_management_commands_syncdb'
p915
(dp916
g6
(dp917
g31
S'_home_kelvin__virtualenvs_matienv_lib_python2_7_site-packages_south_management_commands_syncdb.html'
p918
sg33
S'/home/kelvin/.virtualenvs/matienv/lib/python2.7/site-packages/south/management/commands/syncdb'
p919
sg35
g13
(g14
g15
NtRp920
(dp921
g18
I1
sg19
I0
sg20
I67
sg21
I0
sg22
I0
sg23
I12
sg24
I0
sbssg25
S'tf\x0ey\r\xf1\n\x9aTW\xaf\xc0q\x02;\xa9'
p922
ssS'_home_kelvin__virtualenvs_matienv_lib_python2_7_site-packages_django_core_cache_backends_db'
p923
(dp924
g6
(dp925
g8
S'_home_kelvin__virtualenvs_matienv_lib_python2_7_site-packages_django_core_cache_backends_db.html'
p926
sg10
S'/home/kelvin/.virtualenvs/matienv/lib/python2.7/site-packages/django/core/cache/backends/db'
p927
sg12
g13
(g14
g15
NtRp928
(dp929
g18
I1
sg19
I0
sg20
I136
sg21
I0
sg22
I0
sg23
I110
sg24
I0
sbssg25
S'r\x89\xb9\xd3i\x1b\xa2\xde\xf5\xf4b3v\xa6\xe6Y'
p930
ssS'_home_kelvin__virtualenvs_matienv_lib_python2_7_site-packages_rest_framework_compat'
p931
(dp932
g6
(dp933
g8
S'_home_kelvin__virtualenvs_matienv_lib_python2_7_site-packages_rest_framework_compat.html'
p934
sg10
S'/home/kelvin/.virtualenvs/matienv/lib/python2.7/site-packages/rest_framework/compat'
p935
sg12
g13
(g14
g15
NtRp936
(dp937
g18
I1
sg19
I0
sg20
I149
sg21
I0
sg22
I0
sg23
I67
sg24
I0
sbssg25
S']I\x1a\\|[\x8e\xc0ep`]*\xe7}\x8e'
p938
ssS'_home_kelvin__virtualenvs_matienv_lib_python2_7_site-packages_django_contrib_auth_forms'
p939
(dp940
g6
(dp941
g8
S'_home_kelvin__virtualenvs_matienv_lib_python2_7_site-packages_django_contrib_auth_forms.html'
p942
sg10
S'/home/kelvin/.virtualenvs/matienv/lib/python2.7/site-packages/django/contrib/auth/forms'
p943
sg12
g13
(g14
g15
NtRp944
(dp945
g18
I1
sg19
I0
sg20
I184
sg21
I0
sg22
I0
sg23
I104
sg24
I0
sbssg25
S'_Q\xad?\x18\x1bg\xbfK\xe8tE\xdb\x9dl\xaa'
p946
ssS'mati_views'
p947
(dp948
g218
(dp949
g8
S'mati_views.html'
p950
sg10
S'mati/views'
p951
sg12
g13
(g14
g15
NtRp952
(dp953
g18
I1
sg19
I0
sg20
I40
sg21
I0
sg22
I0
sg23
I26
sg24
I0
sbssg227
S'5\xbb\xdd\xc6h\x86%i6\x1a\xf8\xe4\xab#"\xeb'
p954
ssS'map_common_error_common'
p955
(dp956
g218
(dp957
g8
S'map_common_error_common.html'
p958
sg10
S'map/common/error_common'
p959
sg12
g13
(g14
g15
NtRp960
(dp961
g18
I1
sg19
I0
sg20
I5
sg21
I0
sg22
I0
sg23
I2
sg24
I0
sbssg227
S'7\x11\xfb\x9a\xfc\xb9ls\xf3\x042\x88\xa8\x1a\xe9#'
p962
ssS'_home_kelvin__virtualenvs_matienv_lib_python2_7_site-packages_django_conf_global_settings'
p963
(dp964
g6
(dp965
g8
S'_home_kelvin__virtualenvs_matienv_lib_python2_7_site-packages_django_conf_global_settings.html'
p966
sg10
S'/home/kelvin/.virtualenvs/matienv/lib/python2.7/site-packages/django/conf/global_settings'
p967
sg12
g13
(g14
g15
NtRp968
(dp969
g18
I1
sg19
I0
sg20
I121
sg21
I0
sg22
I0
sg23
I0
sg24
I0
sbssg25
S'\xef\xe5\xf9%\xce8\xcb?\xbe&\x0b5t\xb7\xa5\x90'
p970
ssS'_home_kelvin__virtualenvs_matienv_lib_python2_7_site-packages_django_views_decorators_cache'
p971
(dp972
g6
(dp973
g8
S'_home_kelvin__virtualenvs_matienv_lib_python2_7_site-packages_django_views_decorators_cache.html'
p974
sg10
S'/home/kelvin/.virtualenvs/matienv/lib/python2.7/site-packages/django/views/decorators/cache'
p975
sg12
g13
(g14
g15
NtRp976
(dp977
g18
I1
sg19
I0
sg20
I27
sg21
I0
sg22
I0
sg23
I18
sg24
I0
sbssg25
S'\x8b\x83\xe0\xbd5]\x8b\xdc\xa3\x02i\xc0\xf4\x95\xbe\xaa'
p978
ssS'_home_kelvin__virtualenvs_matienv_lib_python2_7_site-packages_proxy_server_middleware'
p979
(dp980
g29
(dp981
g31
S'_home_kelvin__virtualenvs_matienv_lib_python2_7_site-packages_proxy_server_middleware.html'
p982
sg33
S'/home/kelvin/.virtualenvs/matienv/lib/python2.7/site-packages/proxy_server/middleware'
p983
sg35
g13
(g14
g15
NtRp984
(dp985
g18
I1
sg19
I0
sg20
I6
sg21
I0
sg22
I0
sg23
I0
sg24
I0
sbssg38
S"sS'\x0e\xd1\xd8\xca\xb5\xba\x9e\xe19\xad\xd0\x7fc"
p986
ssS'_home_kelvin__virtualenvs_matienv_lib_python2_7_site-packages_south_signals'
p987
(dp988
g6
(dp989
g8
S'_home_kelvin__virtualenvs_matienv_lib_python2_7_site-packages_south_signals.html'
p990
sg10
S'/home/kelvin/.virtualenvs/matienv/lib/python2.7/site-packages/south/signals'
p991
sg12
g13
(g14
g15
NtRp992
(dp993
g18
I1
sg19
I0
sg20
I5
sg21
I0
sg22
I0
sg23
I0
sg24
I0
sbssg25
S'F\x80,\x1f\x0ewJ\xa6 \x9c\xd1\xad \x97Q\xbf'
p994
ssS'_home_kelvin__virtualenvs_matienv_lib_python2_7_site-packages_rest_framework_utils_breadcrumbs'
p995
(dp996
g6
(dp997
g8
S'_home_kelvin__virtualenvs_matienv_lib_python2_7_site-packages_rest_framework_utils_breadcrumbs.html'
p998
sg10
S'/home/kelvin/.virtualenvs/matienv/lib/python2.7/site-packages/rest_framework/utils/breadcrumbs'
p999
sg12
g13
(g14
g15
NtRp1000
(dp1001
g18
I1
sg19
I0
sg20
I28
sg21
I0
sg22
I0
sg23
I25
sg24
I0
sbssg25
S'vRc\xa5\xfe\x91\x94\x94\x12p\xfc<:\xect\xe3'
p1002
ssS'_home_kelvin__virtualenvs_matienv_lib_python2_7_site-packages_south___init__'
p1003
(dp1004
g6
(dp1005
g8
S'_home_kelvin__virtualenvs_matienv_lib_python2_7_site-packages_south___init__.html'
p1006
sg10
S'/home/kelvin/.virtualenvs/matienv/lib/python2.7/site-packages/south/__init__'
p1007
sg12
g13
(g14
g15
NtRp1008
(dp1009
g18
I1
sg19
I0
sg20
I2
sg21
I0
sg22
I0
sg23
I0
sg24
I0
sbssg25
S'NV\xac[\xbc\x1e\xbb\xab\x0c\ty}\xd3\xb9n\xde'
p1010
ssS'_home_kelvin__virtualenvs_matienv_lib_python2_7_site-packages_django_views_generic_dates'
p1011
(dp1012
g6
(dp1013
g8
S'_home_kelvin__virtualenvs_matienv_lib_python2_7_site-packages_django_views_generic_dates.html'
p1014
sg10
S'/home/kelvin/.virtualenvs/matienv/lib/python2.7/site-packages/django/views/generic/dates'
p1015
sg12
g13
(g14
g15
NtRp1016
(dp1017
g18
I1
sg19
I0
sg20
I320
sg21
I0
sg22
I0
sg23
I217
sg24
I0
sbssg25
S'\x87\tRq+\xe27t\xcb\n\x07\xa8/_9\xb9'
p1018
ssS'map_api_teacher_api'
p1019
(dp1020
g218
(dp1021
g8
S'map_api_teacher_api.html'
p1022
sg10
S'map/api/teacher_api'
p1023
sg12
g13
(g14
g15
NtRp1024
(dp1025
g18
I1
sg19
I0
sg20
I53
sg21
I0
sg22
I0
sg23
I45
sg24
I0
sbssg227
S'\\\x82\x0e\xa7\t\xbdjg\xb8]\\\xd1\xcaL\xe4\x92'
p1026
ssS'_home_kelvin__virtualenvs_matienv_lib_python2_7_site-packages_django_contrib_messages___init__'
p1027
(dp1028
g6
(dp1029
g8
S'_home_kelvin__virtualenvs_matienv_lib_python2_7_site-packages_django_contrib_messages___init__.html'
p1030
sg10
S'/home/kelvin/.virtualenvs/matienv/lib/python2.7/site-packages/django/contrib/messages/__init__'
p1031
sg12
g13
(g14
g15
NtRp1032
(dp1033
g18
I1
sg19
I0
sg20
I3
sg21
I0
sg22
I0
sg23
I0
sg24
I0
sbssg25
S"\xf4\x03\xf0-\x85\x9aN\xb8x'\xb8C\xe6\xcc\xc7M"
p1034
ssS'map_common___init__'
p1035
(dp1036
g218
(dp1037
g220
S'map_common___init__.html'
p1038
sg222
S'map/common/__init__'
p1039
sg224
g13
(g14
g15
NtRp1040
(dp1041
g18
I1
sg19
I0
sg20
I0
sg21
I0
sg22
I0
sg23
I0
sg24
I0
sbssg227
S'\xca\xf5\x9f\x7f\x88\xdfa\x831|T\x1d\xbc}\xa5v'
p1042
ssS'_home_kelvin__virtualenvs_matienv_lib_python2_7_site-packages_django_utils_datetime_safe'
p1043
(dp1044
g6
(dp1045
g8
S'_home_kelvin__virtualenvs_matienv_lib_python2_7_site-packages_django_utils_datetime_safe.html'
p1046
sg10
S'/home/kelvin/.virtualenvs/matienv/lib/python2.7/site-packages/django/utils/datetime_safe'
p1047
sg12
g13
(g14
g15
NtRp1048
(dp1049
g18
I1
sg19
I0
sg20
I56
sg21
I0
sg22
I0
sg23
I42
sg24
I0
sbssg25
S'\xce\xd7J\x80\x7fi\xb5\xc2\x830\xe4\x10\x06@\xd5H'
p1050
ssS'_home_kelvin__virtualenvs_matienv_lib_python2_7_site-packages_django_contrib_admin_templatetags_admin_urls'
p1051
(dp1052
g6
(dp1053
g8
S'_home_kelvin__virtualenvs_matienv_lib_python2_7_site-packages_django_contrib_admin_templatetags_admin_urls.html'
p1054
sg10
S'/home/kelvin/.virtualenvs/matienv/lib/python2.7/site-packages/django/contrib/admin/templatetags/admin_urls'
p1055
sg12
g13
(g14
g15
NtRp1056
(dp1057
g18
I1
sg19
I0
sg20
I37
sg21
I0
sg22
I0
sg23
I24
sg24
I0
sbssg25
S'\x81\xc9\t.\x9eZq\xa4k\xdbta \xf2\xfc\xf3'
p1058
ssS'_home_kelvin__virtualenvs_matienv_lib_python2_7_site-packages_rest_framework_request'
p1059
(dp1060
g6
(dp1061
g8
S'_home_kelvin__virtualenvs_matienv_lib_python2_7_site-packages_rest_framework_request.html'
p1062
sg10
S'/home/kelvin/.virtualenvs/matienv/lib/python2.7/site-packages/rest_framework/request'
p1063
sg12
g13
(g14
g15
NtRp1064
(dp1065
g18
I1
sg19
I0
sg20
I193
sg21
I0
sg22
I0
sg23
I147
sg24
I0
sbssg25
S'3\xc8\xda(\x9e\xb3\xbb\x94!\xff\xfe\x82\x8d\xcdY\xeb'
p1066
ssS'_home_kelvin__virtualenvs_matienv_lib_python2_7_site-packages_south_logger'
p1067
(dp1068
g6
(dp1069
g8
S'_home_kelvin__virtualenvs_matienv_lib_python2_7_site-packages_south_logger.html'
p1070
sg10
S'/home/kelvin/.virtualenvs/matienv/lib/python2.7/site-packages/south/logger'
p1071
sg12
g13
(g14
g15
NtRp1072
(dp1073
g18
I1
sg19
I0
sg20
I26
sg21
I0
sg22
I0
sg23
I14
sg24
I0
sbssg25
S'\x1c6C\xae\x15_B\xb67\x0bz\x8d\x17+c\xc7'
p1074
ssS'_home_kelvin__virtualenvs_matienv_lib_python2_7_site-packages_django_db_models_base'
p1075
(dp1076
g6
(dp1077
g31
S'_home_kelvin__virtualenvs_matienv_lib_python2_7_site-packages_django_db_models_base.html'
p1078
sg33
S'/home/kelvin/.virtualenvs/matienv/lib/python2.7/site-packages/django/db/models/base'
p1079
sg35
g13
(g14
g15
NtRp1080
(dp1081
g18
I1
sg19
I0
sg20
I559
sg21
I0
sg22
I0
sg23
I306
sg24
I0
sbssg25
S"'\xbe\x85\xe8w\x19\x12^\n\x86\xb3\t6Q\xc4\x99"
p1082
ssS'_home_kelvin__virtualenvs_matienv_lib_python2_7_site-packages_django_db_models_sql_expressions'
p1083
(dp1084
g6
(dp1085
g8
S'_home_kelvin__virtualenvs_matienv_lib_python2_7_site-packages_django_db_models_sql_expressions.html'
p1086
sg10
S'/home/kelvin/.virtualenvs/matienv/lib/python2.7/site-packages/django/db/models/sql/expressions'
p1087
sg12
g13
(g14
g15
NtRp1088
(dp1089
g18
I1
sg19
I0
sg20
I81
sg21
I0
sg22
I0
sg23
I66
sg24
I0
sbssg25
S'\xa3\xe7\x80\xde\xe5\xba\xb7\x93`\xeb\x1a2\x9f\x98\x88\xb9'
p1090
ssS'_home_kelvin__virtualenvs_matienv_lib_python2_7_site-packages_django_utils_timesince'
p1091
(dp1092
g6
(dp1093
g8
S'_home_kelvin__virtualenvs_matienv_lib_python2_7_site-packages_django_utils_timesince.html'
p1094
sg10
S'/home/kelvin/.virtualenvs/matienv/lib/python2.7/site-packages/django/utils/timesince'
p1095
sg12
g13
(g14
g15
NtRp1096
(dp1097
g18
I1
sg19
I0
sg20
I30
sg21
I0
sg22
I0
sg23
I23
sg24
I0
sbssg25
S'\xa2]\xb6\x8b\x16\xc6\xbaB\xa7\x06\xa5\xb2\x8a,E\xdc'
p1098
ssS'_home_kelvin__virtualenvs_matienv_lib_python2_7_site-packages_django_extensions_admin_widgets'
p1099
(dp1100
g6
(dp1101
g8
S'_home_kelvin__virtualenvs_matienv_lib_python2_7_site-packages_django_extensions_admin_widgets.html'
p1102
sg10
S'/home/kelvin/.virtualenvs/matienv/lib/python2.7/site-packages/django_extensions/admin/widgets'
p1103
sg12
g13
(g14
g15
NtRp1104
(dp1105
g18
I1
sg19
I0
sg20
I45
sg21
I0
sg22
I0
sg23
I29
sg24
I0
sbssg25
S'd\xf3\xed\x18i\xaaJ\x1e\xc8\xf0\xd83ne\xfb\xa7'
p1106
ssS'_home_kelvin__virtualenvs_matienv_lib_python2_7_site-packages_django_template_defaulttags'
p1107
(dp1108
g6
(dp1109
g8
S'_home_kelvin__virtualenvs_matienv_lib_python2_7_site-packages_django_template_defaulttags.html'
p1110
sg10
S'/home/kelvin/.virtualenvs/matienv/lib/python2.7/site-packages/django/template/defaulttags'
p1111
sg12
g13
(g14
g15
NtRp1112
(dp1113
g18
I1
sg19
I0
sg20
I623
sg21
I0
sg22
I0
sg23
I500
sg24
I0
sbssg25
S'\xe0*\xad\xa3\xe5\xc7\xe1\xadP\xa1\x06@\x16\xbb.\x83'
p1114
ssS'_home_kelvin__virtualenvs_matienv_lib_python2_7_site-packages_django_extensions_management___init__'
p1115
(dp1116
g6
(dp1117
g8
S'_home_kelvin__virtualenvs_matienv_lib_python2_7_site-packages_django_extensions_management___init__.html'
p1118
sg10
S'/home/kelvin/.virtualenvs/matienv/lib/python2.7/site-packages/django_extensions/management/__init__'
p1119
sg12
g13
(g14
g15
NtRp1120
(dp1121
g18
I1
sg19
I0
sg20
I0
sg21
I0
sg22
I0
sg23
I0
sg24
I0
sbssg25
S'\xca\xf5\x9f\x7f\x88\xdfa\x831|T\x1d\xbc}\xa5v'
p1122
ssS'_home_kelvin__virtualenvs_matienv_lib_python2_7_site-packages_bootstrapform_models'
p1123
(dp1124
g6
(dp1125
g8
S'_home_kelvin__virtualenvs_matienv_lib_python2_7_site-packages_bootstrapform_models.html'
p1126
sg10
S'/home/kelvin/.virtualenvs/matienv/lib/python2.7/site-packages/bootstrapform/models'
p1127
sg12
g13
(g14
g15
NtRp1128
(dp1129
g18
I1
sg19
I0
sg20
I0
sg21
I0
sg22
I0
sg23
I0
sg24
I0
sbssg25
S'\xca\xf5\x9f\x7f\x88\xdfa\x831|T\x1d\xbc}\xa5v'
p1130
ssS'_home_kelvin__virtualenvs_matienv_lib_python2_7_site-packages_django_test_testcases'
p1131
(dp1132
g6
(dp1133
g8
S'_home_kelvin__virtualenvs_matienv_lib_python2_7_site-packages_django_test_testcases.html'
p1134
sg10
S'/home/kelvin/.virtualenvs/matienv/lib/python2.7/site-packages/django/test/testcases'
p1135
sg12
g13
(g14
g15
NtRp1136
(dp1137
g18
I1
sg19
I0
sg20
I609
sg21
I0
sg22
I0
sg23
I425
sg24
I0
sbssg25
S'-=\xff\x8e\x14ONQ^v\x95\xcdn\x9c\x90\xaa'
p1138
ssS'_home_kelvin__virtualenvs_matienv_lib_python2_7_site-packages_south_management_commands_test'
p1139
(dp1140
g6
(dp1141
g8
S'_home_kelvin__virtualenvs_matienv_lib_python2_7_site-packages_south_management_commands_test.html'
p1142
sg10
S'/home/kelvin/.virtualenvs/matienv/lib/python2.7/site-packages/south/management/commands/test'
p1143
sg12
g13
(g14
g15
NtRp1144
(dp1145
g18
I1
sg19
I0
sg20
I6
sg21
I0
sg22
I0
sg23
I0
sg24
I0
sbssg25
S'g\xf6:\xect\xabp)\x1c\xf2\xf9q3\xcbP\xf5'
p1146
ssS'_home_kelvin__virtualenvs_matienv_lib_python2_7_site-packages_django_http_cookie'
p1147
(dp1148
g6
(dp1149
g31
S'_home_kelvin__virtualenvs_matienv_lib_python2_7_site-packages_django_http_cookie.html'
p1150
sg33
S'/home/kelvin/.virtualenvs/matienv/lib/python2.7/site-packages/django/http/cookie'
p1151
sg35
g13
(g14
g15
NtRp1152
(dp1153
g18
I1
sg19
I0
sg20
I53
sg21
I0
sg22
I0
sg23
I33
sg24
I0
sbssg25
S'\xd8&\xb0\xcd\xce\xefr\x00\xcc\xc9\x93\x92)l=\x9c'
p1154
ssS'_home_kelvin__virtualenvs_matienv_lib_python2_7_site-packages_django_contrib_messages_constants'
p1155
(dp1156
g6
(dp1157
g8
S'_home_kelvin__virtualenvs_matienv_lib_python2_7_site-packages_django_contrib_messages_constants.html'
p1158
sg10
S'/home/kelvin/.virtualenvs/matienv/lib/python2.7/site-packages/django/contrib/messages/constants'
p1159
sg12
g13
(g14
g15
NtRp1160
(dp1161
g18
I1
sg19
I0
sg20
I6
sg21
I0
sg22
I0
sg23
I0
sg24
I0
sbssg25
S'\x99u\x1fZpQ\xa3b\x8f# l\x06w\xe1\xdb'
p1162
ssS'_home_kelvin__virtualenvs_matienv_lib_python2_7_site-packages_django_core_signing'
p1163
(dp1164
g6
(dp1165
g8
S'_home_kelvin__virtualenvs_matienv_lib_python2_7_site-packages_django_core_signing.html'
p1166
sg10
S'/home/kelvin/.virtualenvs/matienv/lib/python2.7/site-packages/django/core/signing'
p1167
sg12
g13
(g14
g15
NtRp1168
(dp1169
g18
I1
sg19
I0
sg20
I86
sg21
I0
sg22
I0
sg23
I54
sg24
I0
sbssg25
S"T\xea\xe3\x07i\xf5\x125g\x00\x8d\n'\xb5\xcf@"
p1170
ssS'_home_kelvin__virtualenvs_matienv_lib_python2_7_site-packages_django_db_backends___init__'
p1171
(dp1172
g6
(dp1173
g31
S'_home_kelvin__virtualenvs_matienv_lib_python2_7_site-packages_django_db_backends___init__.html'
p1174
sg33
S'/home/kelvin/.virtualenvs/matienv/lib/python2.7/site-packages/django/db/backends/__init__'
p1175
sg35
g13
(g14
g15
NtRp1176
(dp1177
g18
I1
sg19
I0
sg20
I542
sg21
I0
sg22
I0
sg23
I223
sg24
I0
sbssg25
S'2\x1eW\xf5!\xb3\x94\x83t\x85\xbb\x94[>\xbdk'
p1178
ssS'_home_kelvin__virtualenvs_matienv_lib_python2_7_site-packages_django_core_servers_basehttp'
p1179
(dp1180
g6
(dp1181
g8
S'_home_kelvin__virtualenvs_matienv_lib_python2_7_site-packages_django_core_servers_basehttp.html'
p1182
sg10
S'/home/kelvin/.virtualenvs/matienv/lib/python2.7/site-packages/django/core/servers/basehttp'
p1183
sg12
g13
(g14
g15
NtRp1184
(dp1185
g18
I1
sg19
I0
sg20
I89
sg21
I0
sg22
I0
sg23
I59
sg24
I0
sbssg25
S'\xeb\xd2X,\xd9\x941\xde7\x1e\xc6x\xbf\x11!\x1c'
p1186
ssS'map_common_master_common'
p1187
(dp1188
g218
(dp1189
g31
S'map_common_master_common.html'
p1190
sg33
S'map/common/master_common'
p1191
sg35
g13
(g14
g15
NtRp1192
(dp1193
g18
I1
sg19
I0
sg20
I16
sg21
I0
sg22
I0
sg23
I8
sg24
I0
sbssg227
S'\xcc\x13Y\x1e\x9f\xb0\xa5\xb3\x88\xc8\xf8e\xfb\xc0\x1f\xe1'
p1194
ssS'map_api_subject_api'
p1195
(dp1196
g218
(dp1197
g8
S'map_api_subject_api.html'
p1198
sg10
S'map/api/subject_api'
p1199
sg12
g13
(g14
g15
NtRp1200
(dp1201
g18
I1
sg19
I0
sg20
I59
sg21
I0
sg22
I0
sg23
I49
sg24
I0
sbssg227
S'\xe7\xf8*@\xb2\xd0 \x9d\x0c\x97{0\xc4=\x1f\xd6'
p1202
ssS'_home_kelvin__virtualenvs_matienv_lib_python2_7_site-packages_django_db_models_related'
p1203
(dp1204
g6
(dp1205
S'html_filename'
p1206
S'_home_kelvin__virtualenvs_matienv_lib_python2_7_site-packages_django_db_models_related.html'
p1207
sS'name'
p1208
S'/home/kelvin/.virtualenvs/matienv/lib/python2.7/site-packages/django/db/models/related'
p1209
sS'nums'
p1210
g13
(g14
g15
NtRp1211
(dp1212
g18
I1
sg19
I0
sg20
I35
sg21
I0
sg22
I0
sg23
I10
sg24
I0
sbssg25
S'\xe8_a\x06z\x89\xb5\x12p\xbe\xdb\x9d1\xe4\x08\x85'
p1213
ssS'_home_kelvin__virtualenvs_matienv_lib_python2_7_site-packages_django_utils_unittest___init__'
p1214
(dp1215
g6
(dp1216
g8
S'_home_kelvin__virtualenvs_matienv_lib_python2_7_site-packages_django_utils_unittest___init__.html'
p1217
sg10
S'/home/kelvin/.virtualenvs/matienv/lib/python2.7/site-packages/django/utils/unittest/__init__'
p1218
sg12
g13
(g14
g15
NtRp1219
(dp1220
g18
I1
sg19
I0
sg20
I23
sg21
I0
sg22
I0
sg23
I17
sg24
I0
sbssg25
S'\xa8N\x8f\x06\xf1O\x1f\x89\xbe\x96\x13\xdd\xdf;\x89s'
p1221
ssS'_home_kelvin__virtualenvs_matienv_lib_python2_7_site-packages_django_utils___init__'
p1222
(dp1223
g6
(dp1224
g8
S'_home_kelvin__virtualenvs_matienv_lib_python2_7_site-packages_django_utils___init__.html'
p1225
sg10
S'/home/kelvin/.virtualenvs/matienv/lib/python2.7/site-packages/django/utils/__init__'
p1226
sg12
g13
(g14
g15
NtRp1227
(dp1228
g18
I1
sg19
I0
sg20
I0
sg21
I0
sg22
I0
sg23
I0
sg24
I0
sbssg25
S'\xca\xf5\x9f\x7f\x88\xdfa\x831|T\x1d\xbc}\xa5v'
p1229
ssS'_home_kelvin__virtualenvs_matienv_lib_python2_7_site-packages_django_forms_fields'
p1230
(dp1231
g6
(dp1232
g8
S'_home_kelvin__virtualenvs_matienv_lib_python2_7_site-packages_django_forms_fields.html'
p1233
sg10
S'/home/kelvin/.virtualenvs/matienv/lib/python2.7/site-packages/django/forms/fields'
p1234
sg12
g13
(g14
g15
NtRp1235
(dp1236
g18
I1
sg19
I0
sg20
I640
sg21
I0
sg22
I0
sg23
I417
sg24
I0
sbssg25
S'7\xff\x87\x1e\r\x90\xb6\xf9\xdbY\xdc|\x01\xf1K\xf0'
p1237
ssS'_home_kelvin__virtualenvs_matienv_lib_python2_7_site-packages_psycopg2___init__'
p1238
(dp1239
g6
(dp1240
g8
S'_home_kelvin__virtualenvs_matienv_lib_python2_7_site-packages_psycopg2___init__.html'
p1241
sg10
S'/home/kelvin/.virtualenvs/matienv/lib/python2.7/site-packages/psycopg2/__init__'
p1242
sg12
g13
(g14
g15
NtRp1243
(dp1244
g18
I1
sg19
I0
sg20
I50
sg21
I0
sg22
I0
sg23
I7
sg24
I0
sbssg25
S'\xc6)"\x84\xb2\x10\xe3\xd8c#\xc2:\xc2yTy'
p1245
ssS'_home_kelvin__virtualenvs_matienv_lib_python2_7_site-packages_django_utils_translation_trans_real'
p1246
(dp1247
g6
(dp1248
g8
S'_home_kelvin__virtualenvs_matienv_lib_python2_7_site-packages_django_utils_translation_trans_real.html'
p1249
sg10
S'/home/kelvin/.virtualenvs/matienv/lib/python2.7/site-packages/django/utils/translation/trans_real'
p1250
sg12
g13
(g14
g15
NtRp1251
(dp1252
g18
I1
sg19
I0
sg20
I411
sg21
I0
sg22
I0
sg23
I267
sg24
I0
sbssg25
S'\x8b\xca\x19\xbd\x9c\xf2(\x1d\xd0\x85\r\x1c\x01\x0c\xc15'
p1253
ssS'dimaps_views_output_views'
p1254
(dp1255
g218
(dp1256
g8
S'dimaps_views_output_views.html'
p1257
sg10
S'dimaps/views/output_views'
p1258
sg12
g13
(g14
g15
NtRp1259
(dp1260
g18
I1
sg19
I0
sg20
I41
sg21
I0
sg22
I0
sg23
I7
sg24
I0
sbssg227
S'-\r\xb9\xa3\x89\xa2\xddt\x98\x18\xa7\x99v\t\xe4\xc7'
p1261
ssS'_home_kelvin__virtualenvs_matienv_lib_python2_7_site-packages_django_contrib_staticfiles_handlers'
p1262
(dp1263
g6
(dp1264
g8
S'_home_kelvin__virtualenvs_matienv_lib_python2_7_site-packages_django_contrib_staticfiles_handlers.html'
p1265
sg10
S'/home/kelvin/.virtualenvs/matienv/lib/python2.7/site-packages/django/contrib/staticfiles/handlers'
p1266
sg12
g13
(g14
g15
NtRp1267
(dp1268
g18
I1
sg19
I0
sg20
I41
sg21
I0
sg22
I0
sg23
I25
sg24
I0
sbssg25
S'e9\xd8\x8d\x91\xb3\x18\xb2\rj\xbd\xfe\x85\xcb*\x80'
p1269
ssS'map_views_student_views'
p1270
(dp1271
g218
(dp1272
g8
S'map_views_student_views.html'
p1273
sg10
S'map/views/student_views'
p1274
sg12
g13
(g14
g15
NtRp1275
(dp1276
g18
I1
sg19
I0
sg20
I63
sg21
I0
sg22
I0
sg23
I52
sg24
I0
sbssg227
S'\xd7\xd2a\xbb\x11\xdd\xc0\xb1\x84\x03\xb5\xd8\x16\xeb\xc6\xb1'
p1277
ssS'_home_kelvin__virtualenvs_matienv_lib_python2_7_site-packages_south_utils___init__'
p1278
(dp1279
g6
(dp1280
g8
S'_home_kelvin__virtualenvs_matienv_lib_python2_7_site-packages_south_utils___init__.html'
p1281
sg10
S'/home/kelvin/.virtualenvs/matienv/lib/python2.7/site-packages/south/utils/__init__'
p1282
sg12
g13
(g14
g15
NtRp1283
(dp1284
g18
I1
sg19
I0
sg20
I38
sg21
I0
sg22
I0
sg23
I7
sg24
I0
sbssg25
S'\x08\xb2zHe\xd8c\x00\x96\x88\x0b^\xc2\xa4F?'
p1285
ssS'_home_kelvin__virtualenvs_matienv_lib_python2_7_site-packages_django_views_decorators_debug'
p1286
(dp1287
g6
(dp1288
g8
S'_home_kelvin__virtualenvs_matienv_lib_python2_7_site-packages_django_views_decorators_debug.html'
p1289
sg10
S'/home/kelvin/.virtualenvs/matienv/lib/python2.7/site-packages/django/views/decorators/debug'
p1290
sg12
g13
(g14
g15
NtRp1291
(dp1292
g18
I1
sg19
I0
sg20
I21
sg21
I0
sg22
I0
sg23
I13
sg24
I0
sbssg25
S'e\xeaj\x7f\x072\x85\xb8\x96\xaf\xb1jd\xc4\xcac'
p1293
ssS'_home_kelvin__virtualenvs_matienv_lib_python2_7_site-packages_django_db_models_sql_compiler'
p1294
(dp1295
g6
(dp1296
g31
S'_home_kelvin__virtualenvs_matienv_lib_python2_7_site-packages_django_db_models_sql_compiler.html'
p1297
sg33
S'/home/kelvin/.virtualenvs/matienv/lib/python2.7/site-packages/django/db/models/sql/compiler'
p1298
sg35
g13
(g14
g15
NtRp1299
(dp1300
g18
I1
sg19
I0
sg20
I674
sg21
I0
sg22
I0
sg23
I325
sg24
I0
sbssg25
S'n\x9f\x1f\xe3\xba\xec\xb5\x06\x81\x91m\xc0-\xd5\x1f\xa8'
p1301
ssS'_home_kelvin__virtualenvs_matienv_lib_python2_7_site-packages_django_contrib_admin_templatetags___init__'
p1302
(dp1303
g6
(dp1304
g8
S'_home_kelvin__virtualenvs_matienv_lib_python2_7_site-packages_django_contrib_admin_templatetags___init__.html'
p1305
sg10
S'/home/kelvin/.virtualenvs/matienv/lib/python2.7/site-packages/django/contrib/admin/templatetags/__init__'
p1306
sg12
g13
(g14
g15
NtRp1307
(dp1308
g18
I1
sg19
I0
sg20
I0
sg21
I0
sg22
I0
sg23
I0
sg24
I0
sbssg25
S'\xca\xf5\x9f\x7f\x88\xdfa\x831|T\x1d\xbc}\xa5v'
p1309
ssS'_home_kelvin__virtualenvs_matienv_lib_python2_7_site-packages_django_core_cache_backends___init__'
p1310
(dp1311
g6
(dp1312
g8
S'_home_kelvin__virtualenvs_matienv_lib_python2_7_site-packages_django_core_cache_backends___init__.html'
p1313
sg10
S'/home/kelvin/.virtualenvs/matienv/lib/python2.7/site-packages/django/core/cache/backends/__init__'
p1314
sg12
g13
(g14
g15
NtRp1315
(dp1316
g18
I1
sg19
I0
sg20
I0
sg21
I0
sg22
I0
sg23
I0
sg24
I0
sbssg25
S'\xca\xf5\x9f\x7f\x88\xdfa\x831|T\x1d\xbc}\xa5v'
p1317
ssS'_home_kelvin__virtualenvs_matienv_lib_python2_7_site-packages_django_contrib_auth_backends'
p1318
(dp1319
g29
(dp1320
g31
S'_home_kelvin__virtualenvs_matienv_lib_python2_7_site-packages_django_contrib_auth_backends.html'
p1321
sg33
S'/home/kelvin/.virtualenvs/matienv/lib/python2.7/site-packages/django/contrib/auth/backends'
p1322
sg35
g13
(g14
g15
NtRp1323
(dp1324
g18
I1
sg19
I0
sg20
I71
sg21
I0
sg22
I0
sg23
I56
sg24
I0
sbssg38
S'\x07\x14\x1a\xeczvm\x06\x00\x9b}mh\x92\x1d\x01'
p1325
ssS'map_views_section_views'
p1326
(dp1327
g218
(dp1328
g8
S'map_views_section_views.html'
p1329
sg10
S'map/views/section_views'
p1330
sg12
g13
(g14
g15
NtRp1331
(dp1332
g18
I1
sg19
I0
sg20
I57
sg21
I0
sg22
I0
sg23
I46
sg24
I0
sbssg227
S'\xd9\xfd\x95\x01:Nk\x02\x1e \x80\xd5\xf6\xcf|\xfe'
p1333
ssS'_home_kelvin__virtualenvs_matienv_lib_python2_7_site-packages_django_contrib_admin___init__'
p1334
(dp1335
g6
(dp1336
g8
S'_home_kelvin__virtualenvs_matienv_lib_python2_7_site-packages_django_contrib_admin___init__.html'
p1337
sg10
S'/home/kelvin/.virtualenvs/matienv/lib/python2.7/site-packages/django/contrib/admin/__init__'
p1338
sg12
g13
(g14
g15
NtRp1339
(dp1340
g18
I1
sg19
I0
sg20
I19
sg21
I0
sg22
I0
sg23
I1
sg24
I0
sbssg25
S'T^\x81\x03\x81O\xc0\xf0:\x19\xc57\xed*F\xd8'
p1341
ssS'_home_kelvin__virtualenvs_matienv_lib_python2_7_site-packages_django_views_debug'
p1342
(dp1343
g6
(dp1344
g8
S'_home_kelvin__virtualenvs_matienv_lib_python2_7_site-packages_django_views_debug.html'
p1345
sg10
S'/home/kelvin/.virtualenvs/matienv/lib/python2.7/site-packages/django/views/debug'
p1346
sg12
g13
(g14
g15
NtRp1347
(dp1348
g18
I1
sg19
I0
sg20
I288
sg21
I0
sg22
I0
sg23
I239
sg24
I0
sbssg25
S'J\xa6\xd5\xd1|i\x8bK#A\x94\xf1\xb8\xb1\xc9\xc3'
p1349
ssS'_home_kelvin__virtualenvs_matienv_lib_python2_7_site-packages_django_http_request'
p1350
(dp1351
g6
(dp1352
g31
S'_home_kelvin__virtualenvs_matienv_lib_python2_7_site-packages_django_http_request.html'
p1353
sg33
S'/home/kelvin/.virtualenvs/matienv/lib/python2.7/site-packages/django/http/request'
p1354
sg35
g13
(g14
g15
NtRp1355
(dp1356
g18
I1
sg19
I0
sg20
I291
sg21
I0
sg22
I0
sg23
I161
sg24
I0
sbssg25
S"[\xd0\x8c\xe8v\x89'-\xdbB\xc0\xfa\xca\xab\xc3\xdc"
p1357
ssS'_home_kelvin__virtualenvs_matienv_lib_python2_7_site-packages_django_contrib_contenttypes_management'
p1358
(dp1359
g6
(dp1360
g8
S'_home_kelvin__virtualenvs_matienv_lib_python2_7_site-packages_django_contrib_contenttypes_management.html'
p1361
sg10
S'/home/kelvin/.virtualenvs/matienv/lib/python2.7/site-packages/django/contrib/contenttypes/management'
p1362
sg12
g13
(g14
g15
NtRp1363
(dp1364
g18
I1
sg19
I0
sg20
I44
sg21
I0
sg22
I0
sg23
I19
sg24
I0
sbssg25
S'\xad\xdfL\x089\xdd\xe6\x8d\xeb\xa2\xb1\xea\xf6\xd2Bz'
p1365
ssS'_home_kelvin__virtualenvs_matienv_lib_python2_7_site-packages_django_contrib_sessions_models'
p1366
(dp1367
g6
(dp1368
g8
S'_home_kelvin__virtualenvs_matienv_lib_python2_7_site-packages_django_contrib_sessions_models.html'
p1369
sg10
S'/home/kelvin/.virtualenvs/matienv/lib/python2.7/site-packages/django/contrib/sessions/models'
p1370
sg12
g13
(g14
g15
NtRp1371
(dp1372
g18
I1
sg19
I0
sg20
I23
sg21
I0
sg22
I0
sg23
I7
sg24
I0
sbssg25
S'\xc4\x88\x1f\xbd1SuJ!\xba\x0c\x17\x01d\xf9\x0e'
p1373
ssS'_home_kelvin__virtualenvs_matienv_lib_python2_7_site-packages_django_db_models_sql_where'
p1374
(dp1375
g6
(dp1376
g8
S'_home_kelvin__virtualenvs_matienv_lib_python2_7_site-packages_django_db_models_sql_where.html'
p1377
sg10
S'/home/kelvin/.virtualenvs/matienv/lib/python2.7/site-packages/django/db/models/sql/where'
p1378
sg12
g13
(g14
g15
NtRp1379
(dp1380
g18
I1
sg19
I0
sg20
I230
sg21
I0
sg22
I0
sg23
I98
sg24
I0
sbssg25
S'\xa2C\xb8\x93)\xbcV\xf7\xb1R\xb3\x06\xdf\xfb]\x8c'
p1381
ssS'_home_kelvin__virtualenvs_matienv_lib_python2_7_site-packages_django_views_decorators_csrf'
p1382
(dp1383
g6
(dp1384
g8
S'_home_kelvin__virtualenvs_matienv_lib_python2_7_site-packages_django_views_decorators_csrf.html'
p1385
sg10
S'/home/kelvin/.virtualenvs/matienv/lib/python2.7/site-packages/django/views/decorators/csrf'
p1386
sg12
g13
(g14
g15
NtRp1387
(dp1388
g18
I1
sg19
I0
sg20
I27
sg21
I0
sg22
I0
sg23
I9
sg24
I0
sbssg25
S'M\x92\xd4#8<\xf6\x8f>&\xa6\xd02m\x0e\x1d'
p1389
ssS'map_urls'
p1390
(dp1391
g218
(dp1392
g31
S'map_urls.html'
p1393
sg33
S'map/urls'
p1394
sg35
g13
(g14
g15
NtRp1395
(dp1396
g18
I1
sg19
I0
sg20
I28
sg21
I0
sg22
I0
sg23
I0
sg24
I0
sbssg227
S'$\xdf\xdc%\x84\xfd\xca\xee|\x85(\xad\x99\xda"8'
p1397
ssS'_home_kelvin__virtualenvs_matienv_lib_python2_7_site-packages_rest_framework_fields'
p1398
(dp1399
g6
(dp1400
g8
S'_home_kelvin__virtualenvs_matienv_lib_python2_7_site-packages_rest_framework_fields.html'
p1401
sg10
S'/home/kelvin/.virtualenvs/matienv/lib/python2.7/site-packages/rest_framework/fields'
p1402
sg12
g13
(g14
g15
NtRp1403
(dp1404
g18
I1
sg19
I0
sg20
I653
sg21
I0
sg22
I0
sg23
I450
sg24
I0
sbssg25
S'Ruw\xae\xfc\x00J9\xbf\xcb\xbdy\xccs\xe5x'
p1405
ssS'_home_kelvin__virtualenvs_matienv_lib_python2_7_site-packages_django_contrib_sessions_exceptions'
p1406
(dp1407
g6
(dp1408
g8
S'_home_kelvin__virtualenvs_matienv_lib_python2_7_site-packages_django_contrib_sessions_exceptions.html'
p1409
sg10
S'/home/kelvin/.virtualenvs/matienv/lib/python2.7/site-packages/django/contrib/sessions/exceptions'
p1410
sg12
g13
(g14
g15
NtRp1411
(dp1412
g18
I1
sg19
I0
sg20
I5
sg21
I0
sg22
I0
sg23
I0
sg24
I0
sbssg25
S'\x95\x04\x01\x10c\xc83\xdaB\xb8qa\xe6[c\xd8'
p1413
ssS'_home_kelvin__virtualenvs_matienv_lib_python2_7_site-packages_django_http_utils'
p1414
(dp1415
g6
(dp1416
g31
S'_home_kelvin__virtualenvs_matienv_lib_python2_7_site-packages_django_http_utils.html'
p1417
sg33
S'/home/kelvin/.virtualenvs/matienv/lib/python2.7/site-packages/django/http/utils'
p1418
sg35
g13
(g14
g15
NtRp1419
(dp1420
g18
I1
sg19
I0
sg20
I43
sg21
I0
sg22
I0
sg23
I27
sg24
I0
sbssg25
S'Lt\r\xf6\xa4q\xc2\xdb\xbb\x8f\xa0\x13\x07\xd3,A'
p1421
ssS'_home_kelvin__virtualenvs_matienv_lib_python2_7_site-packages_django_template_loaders___init__'
p1422
(dp1423
g6
(dp1424
g8
S'_home_kelvin__virtualenvs_matienv_lib_python2_7_site-packages_django_template_loaders___init__.html'
p1425
sg10
S'/home/kelvin/.virtualenvs/matienv/lib/python2.7/site-packages/django/template/loaders/__init__'
p1426
sg12
g13
(g14
g15
NtRp1427
(dp1428
g18
I1
sg19
I0
sg20
I0
sg21
I0
sg22
I0
sg23
I0
sg24
I0
sbssg25
S'\xca\xf5\x9f\x7f\x88\xdfa\x831|T\x1d\xbc}\xa5v'
p1429
ssS'_home_kelvin__virtualenvs_matienv_lib_python2_7_site-packages_django_http___init__'
p1430
(dp1431
g6
(dp1432
g8
S'_home_kelvin__virtualenvs_matienv_lib_python2_7_site-packages_django_http___init__.html'
p1433
sg10
S'/home/kelvin/.virtualenvs/matienv/lib/python2.7/site-packages/django/http/__init__'
p1434
sg12
g13
(g14
g15
NtRp1435
(dp1436
g18
I1
sg19
I0
sg20
I4
sg21
I0
sg22
I0
sg23
I0
sg24
I0
sbssg25
S'\xcb\xb2\xa7\x92\x99\x0eH\x82@\xf7\xc5\xef\xf2\xd4l`'
p1437
ssS'_home_kelvin__virtualenvs_matienv_lib_python2_7_site-packages_django_db_transaction'
p1438
(dp1439
g6
(dp1440
g31
S'_home_kelvin__virtualenvs_matienv_lib_python2_7_site-packages_django_db_transaction.html'
p1441
sg33
S'/home/kelvin/.virtualenvs/matienv/lib/python2.7/site-packages/django/db/transaction'
p1442
sg35
g13
(g14
g15
NtRp1443
(dp1444
g18
I1
sg19
I0
sg20
I188
sg21
I0
sg22
I0
sg23
I79
sg24
I0
sbssg25
S'\x15_\x15\x01!J\xae\x90Z\xcb\xc3\xb4z\xe3jC'
p1445
ssS'_home_kelvin__virtualenvs_matienv_lib_python2_7_site-packages_django_db_backends_postgresql_psycopg2_operations'
p1446
(dp1447
g6
(dp1448
g8
S'_home_kelvin__virtualenvs_matienv_lib_python2_7_site-packages_django_db_backends_postgresql_psycopg2_operations.html'
p1449
sg10
S'/home/kelvin/.virtualenvs/matienv/lib/python2.7/site-packages/django/db/backends/postgresql_psycopg2/operations'
p1450
sg12
g13
(g14
g15
NtRp1451
(dp1452
g18
I1
sg19
I0
sg20
I115
sg21
I0
sg22
I0
sg23
I73
sg24
I0
sbssg25
S'\x106\xbd\xf6\xc1\xf6\x10|\xcf\x80p\x19\xa3S\xd5\x99'
p1453
ssS'map_api_folder_api'
p1454
(dp1455
g218
(dp1456
g31
S'map_api_folder_api.html'
p1457
sg33
S'map/api/folder_api'
p1458
sg35
g13
(g14
g15
NtRp1459
(dp1460
g18
I1
sg19
I0
sg20
I34
sg21
I0
sg22
I0
sg23
I25
sg24
I0
sbssg227
S'^Zp\xceL\x1bS\xff\xf3xc+*\xd1>?'
p1461
ssS'map_common_student_common'
p1462
(dp1463
g218
(dp1464
g31
S'map_common_student_common.html'
p1465
sg33
S'map/common/student_common'
p1466
sg35
g13
(g14
g15
NtRp1467
(dp1468
g18
I1
sg19
I0
sg20
I94
sg21
I0
sg22
I0
sg23
I76
sg24
I0
sbssg227
S'\xeb\xdc\xd7V\xd5\xf6\x1cz\xd9\xcdqk\x87\xce\xbbC'
p1469
ssS'_home_kelvin__virtualenvs_matienv_lib_python2_7_site-packages_django_contrib_sites___init__'
p1470
(dp1471
g6
(dp1472
g8
S'_home_kelvin__virtualenvs_matienv_lib_python2_7_site-packages_django_contrib_sites___init__.html'
p1473
sg10
S'/home/kelvin/.virtualenvs/matienv/lib/python2.7/site-packages/django/contrib/sites/__init__'
p1474
sg12
g13
(g14
g15
NtRp1475
(dp1476
g18
I1
sg19
I0
sg20
I0
sg21
I0
sg22
I0
sg23
I0
sg24
I0
sbssg25
S'\xca\xf5\x9f\x7f\x88\xdfa\x831|T\x1d\xbc}\xa5v'
p1477
ssS'_home_kelvin__virtualenvs_matienv_lib_python2_7_site-packages_south_hacks___init__'
p1478
(dp1479
g6
(dp1480
g8
S'_home_kelvin__virtualenvs_matienv_lib_python2_7_site-packages_south_hacks___init__.html'
p1481
sg10
S'/home/kelvin/.virtualenvs/matienv/lib/python2.7/site-packages/south/hacks/__init__'
p1482
sg12
g13
(g14
g15
NtRp1483
(dp1484
g18
I1
sg19
I0
sg20
I2
sg21
I0
sg22
I0
sg23
I0
sg24
I0
sbssg25
S'O\xc0\x12\x9a\xff\xec\xb3\x9dV9\xee\xf3\x0f>\xb5*'
p1485
ssS'_home_kelvin__virtualenvs_matienv_lib_python2_7_site-packages_django_extensions_admin___init__'
p1486
(dp1487
g6
(dp1488
g8
S'_home_kelvin__virtualenvs_matienv_lib_python2_7_site-packages_django_extensions_admin___init__.html'
p1489
sg10
S'/home/kelvin/.virtualenvs/matienv/lib/python2.7/site-packages/django_extensions/admin/__init__'
p1490
sg12
g13
(g14
g15
NtRp1491
(dp1492
g18
I1
sg19
I0
sg20
I88
sg21
I0
sg22
I0
sg23
I65
sg24
I0
sbssg25
S'\xc9\x1a\x93\xa6\xfb\x14\xeb\x9a\xa9\xb3S\xbay\xf4\xde\x96'
p1493
ssS'_home_kelvin__virtualenvs_matienv_lib_python2_7_site-packages_django_test_client'
p1494
(dp1495
g6
(dp1496
g31
S'_home_kelvin__virtualenvs_matienv_lib_python2_7_site-packages_django_test_client.html'
p1497
sg33
S'/home/kelvin/.virtualenvs/matienv/lib/python2.7/site-packages/django/test/client'
p1498
sg35
g13
(g14
g15
NtRp1499
(dp1500
g18
I1
sg19
I0
sg20
I300
sg21
I0
sg22
I0
sg23
I163
sg24
I0
sbssg25
S'\xf8\x8e\xf2@\x8a\xfe\xd0\xcaR\xb3;\x12\xd7r@M'
p1501
ssS'_home_kelvin__virtualenvs_matienv_lib_python2_7_site-packages_django_utils_unittest_util'
p1502
(dp1503
g6
(dp1504
g8
S'_home_kelvin__virtualenvs_matienv_lib_python2_7_site-packages_django_utils_unittest_util.html'
p1505
sg10
S'/home/kelvin/.virtualenvs/matienv/lib/python2.7/site-packages/django/utils/unittest/util'
p1506
sg12
g13
(g14
g15
NtRp1507
(dp1508
g18
I1
sg19
I0
sg20
I74
sg21
I0
sg22
I0
sg23
I67
sg24
I0
sbssg25
S')\xb0\xd3\xe9\xb4\x86\xbf\x1f\xaaI\xefA\xbf\x9a\xd3\x99'
p1509
ssS'_home_kelvin__virtualenvs_matienv_lib_python2_7_site-packages_rest_framework_permissions'
p1510
(dp1511
g6
(dp1512
g8
S'_home_kelvin__virtualenvs_matienv_lib_python2_7_site-packages_rest_framework_permissions.html'
p1513
sg10
S'/home/kelvin/.virtualenvs/matienv/lib/python2.7/site-packages/rest_framework/permissions'
p1514
sg12
g13
(g14
g15
NtRp1515
(dp1516
g18
I1
sg19
I0
sg20
I71
sg21
I0
sg22
I0
sg23
I43
sg24
I0
sbssg25
S'\xe9\xf2\xe8\xfeV5J\xcc\xb9&\xd6\x80\xfc\xdf`Z'
p1517
ssS'_home_kelvin__virtualenvs_matienv_lib_python2_7_site-packages_south_db_postgresql_psycopg2'
p1518
(dp1519
g6
(dp1520
g8
S'_home_kelvin__virtualenvs_matienv_lib_python2_7_site-packages_south_db_postgresql_psycopg2.html'
p1521
sg10
S'/home/kelvin/.virtualenvs/matienv/lib/python2.7/site-packages/south/db/postgresql_psycopg2'
p1522
sg12
g13
(g14
g15
NtRp1523
(dp1524
g18
I1
sg19
I0
sg20
I32
sg21
I0
sg22
I0
sg23
I18
sg24
I0
sbssg25
S'g{\x0e\xcb\xc3_\x89)\xf6W\x9d\xe7\xb5\x1c1A'
p1525
ssS'_home_kelvin__virtualenvs_matienv_lib_python2_7_site-packages_django_test_utils'
p1526
(dp1527
g6
(dp1528
g8
S'_home_kelvin__virtualenvs_matienv_lib_python2_7_site-packages_django_test_utils.html'
p1529
sg10
S'/home/kelvin/.virtualenvs/matienv/lib/python2.7/site-packages/django/test/utils'
p1530
sg12
g13
(g14
g15
NtRp1531
(dp1532
g18
I1
sg19
I0
sg20
I265
sg21
I0
sg22
I0
sg23
I172
sg24
I0
sbssg25
S'\xd9\xdd\xfa\x89Z^u\x13\x0b9)\xdb[\n\xa5|'
p1533
ssS'_home_kelvin__virtualenvs_matienv_lib_python2_7_site-packages_django_db_models_constants'
p1534
(dp1535
g6
(dp1536
g8
S'_home_kelvin__virtualenvs_matienv_lib_python2_7_site-packages_django_db_models_constants.html'
p1537
sg10
S'/home/kelvin/.virtualenvs/matienv/lib/python2.7/site-packages/django/db/models/constants'
p1538
sg12
g13
(g14
g15
NtRp1539
(dp1540
g18
I1
sg19
I0
sg20
I1
sg21
I0
sg22
I0
sg23
I0
sg24
I0
sbssg25
S'K\x0f@\x85\xa8\x06~v\xd55D;1,\x0f\x95'
p1541
ssS'_home_kelvin__virtualenvs_matienv_lib_python2_7_site-packages_django_contrib_staticfiles_finders'
p1542
(dp1543
g6
(dp1544
g8
S'_home_kelvin__virtualenvs_matienv_lib_python2_7_site-packages_django_contrib_staticfiles_finders.html'
p1545
sg10
S'/home/kelvin/.virtualenvs/matienv/lib/python2.7/site-packages/django/contrib/staticfiles/finders'
p1546
sg12
g13
(g14
g15
NtRp1547
(dp1548
g18
I1
sg19
I0
sg20
I151
sg21
I0
sg22
I0
sg23
I113
sg24
I0
sbssg25
S'\x14\x83j\xd8b\xedjV\x7f\x07,5q\x13\x97\xe6'
p1549
ssS'_home_kelvin__virtualenvs_matienv_lib_python2_7_site-packages_south_migration___init__'
p1550
(dp1551
g6
(dp1552
g31
S'_home_kelvin__virtualenvs_matienv_lib_python2_7_site-packages_south_migration___init__.html'
p1553
sg33
S'/home/kelvin/.virtualenvs/matienv/lib/python2.7/site-packages/south/migration/__init__'
p1554
sg35
g13
(g14
g15
NtRp1555
(dp1556
g18
I1
sg19
I0
sg20
I157
sg21
I0
sg22
I0
sg23
I71
sg24
I0
sbssg25
S'\xacu\xc6\x80<\x9a\xe6\x15\n\x94\xfa\x95\xa2\x90jE'
p1557
ssS'_home_kelvin__virtualenvs_matienv_lib_python2_7_site-packages_rest_framework___init__'
p1558
(dp1559
g6
(dp1560
g8
S'_home_kelvin__virtualenvs_matienv_lib_python2_7_site-packages_rest_framework___init__.html'
p1561
sg10
S'/home/kelvin/.virtualenvs/matienv/lib/python2.7/site-packages/rest_framework/__init__'
p1562
sg12
g13
(g14
g15
NtRp1563
(dp1564
g18
I1
sg19
I0
sg20
I8
sg21
I0
sg22
I0
sg23
I0
sg24
I0
sbssg25
S't\xe5\x80\xf0n\xa4\\\x835Q\xc5c\x97\x80\xef='
p1565
ssS'_home_kelvin__virtualenvs_matienv_lib_python2_7_site-packages_proxy_server___init__'
p1566
(dp1567
g6
(dp1568
g8
S'_home_kelvin__virtualenvs_matienv_lib_python2_7_site-packages_proxy_server___init__.html'
p1569
sg10
S'/home/kelvin/.virtualenvs/matienv/lib/python2.7/site-packages/proxy_server/__init__'
p1570
sg12
g13
(g14
g15
NtRp1571
(dp1572
g18
I1
sg19
I0
sg20
I12
sg21
I0
sg22
I0
sg23
I0
sg24
I0
sbssg25
S'`\xe0rn\xd7[\xf4;\xee/\x0b\x1a<J\x10\xf8'
p1573
ssS'_home_kelvin__virtualenvs_matienv_lib_python2_7_site-packages_django_conf_locale___init__'
p1574
(dp1575
g6
(dp1576
g8
S'_home_kelvin__virtualenvs_matienv_lib_python2_7_site-packages_django_conf_locale___init__.html'
p1577
sg10
S'/home/kelvin/.virtualenvs/matienv/lib/python2.7/site-packages/django/conf/locale/__init__'
p1578
sg12
g13
(g14
g15
NtRp1579
(dp1580
g18
I1
sg19
I0
sg20
I2
sg21
I0
sg22
I0
sg23
I0
sg24
I0
sbssg25
S"\xf9\xdf\t\x9c(6\xfa\xbd'\xc9\xff\xe42\x9b\x84]"
p1581
ssS'map_api_account_api'
p1582
(dp1583
g29
(dp1584
g31
S'map_api_account_api.html'
p1585
sg33
S'map/api/account_api'
p1586
sg35
g13
(g14
g15
NtRp1587
(dp1588
g18
I1
sg19
I0
sg20
I13
sg21
I0
sg22
I0
sg23
I7
sg24
I0
sbssg38
S'c\xb9\xfe\xb4\xc5wo.\xce(\xff\x18\xf2\xa7u\xdf'
p1589
ssS'_home_kelvin__virtualenvs_matienv_lib_python2_7_site-packages_django_core_cache_backends_base'
p1590
(dp1591
g6
(dp1592
g31
S'_home_kelvin__virtualenvs_matienv_lib_python2_7_site-packages_django_core_cache_backends_base.html'
p1593
sg33
S'/home/kelvin/.virtualenvs/matienv/lib/python2.7/site-packages/django/core/cache/backends/base'
p1594
sg35
g13
(g14
g15
NtRp1595
(dp1596
g18
I1
sg19
I0
sg20
I100
sg21
I0
sg22
I0
sg23
I52
sg24
I0
sbssg25
S'\x9bR\xfeeR\xd1\xe8a\xc5\xd9o\x11\xcc\xb7j$'
p1597
ssS'_home_kelvin__virtualenvs_matienv_lib_python2_7_site-packages_django_template_smartif'
p1598
(dp1599
g6
(dp1600
g8
S'_home_kelvin__virtualenvs_matienv_lib_python2_7_site-packages_django_template_smartif.html'
p1601
sg10
S'/home/kelvin/.virtualenvs/matienv/lib/python2.7/site-packages/django/template/smartif'
p1602
sg12
g13
(g14
g15
NtRp1603
(dp1604
g18
I1
sg19
I0
sg20
I104
sg21
I0
sg22
I0
sg23
I61
sg24
I0
sbssg25
S'\xff7VbS!ky \xa4\x05_\x8c\xef\xf6\x9a'
p1605
ssS'_home_kelvin__virtualenvs_matienv_lib_python2_7_site-packages_django_contrib_auth_tokens'
p1606
(dp1607
g6
(dp1608
g8
S'_home_kelvin__virtualenvs_matienv_lib_python2_7_site-packages_django_contrib_auth_tokens.html'
p1609
sg10
S'/home/kelvin/.virtualenvs/matienv/lib/python2.7/site-packages/django/contrib/auth/tokens'
p1610
sg12
g13
(g14
g15
NtRp1611
(dp1612
g18
I1
sg19
I0
sg20
I34
sg21
I0
sg22
I0
sg23
I22
sg24
I0
sbssg25
S'\x835\x03\xf2\xc5\xc6\x97\x80%R\x92dm\xef\xba\xa5'
p1613
ssS'_home_kelvin__virtualenvs_matienv_lib_python2_7_site-packages_django_core_management_commands_syncdb'
p1614
(dp1615
g6
(dp1616
g31
S'_home_kelvin__virtualenvs_matienv_lib_python2_7_site-packages_django_core_management_commands_syncdb.html'
p1617
sg33
S'/home/kelvin/.virtualenvs/matienv/lib/python2.7/site-packages/django/core/management/commands/syncdb'
p1618
sg35
g13
(g14
g15
NtRp1619
(dp1620
g18
I1
sg19
I0
sg20
I100
sg21
I0
sg22
I0
sg23
I22
sg24
I0
sbssg25
S'\xa0\x85\xc0\xc6\x95\xf8Z\x8c\x83D\xe0n6\xb0Cx'
p1621
ssS'_home_kelvin__virtualenvs_matienv_lib_python2_7_site-packages_django_views___init__'
p1622
(dp1623
g6
(dp1624
g8
S'_home_kelvin__virtualenvs_matienv_lib_python2_7_site-packages_django_views___init__.html'
p1625
sg10
S'/home/kelvin/.virtualenvs/matienv/lib/python2.7/site-packages/django/views/__init__'
p1626
sg12
g13
(g14
g15
NtRp1627
(dp1628
g18
I1
sg19
I0
sg20
I0
sg21
I0
sg22
I0
sg23
I0
sg24
I0
sbssg25
S'\xca\xf5\x9f\x7f\x88\xdfa\x831|T\x1d\xbc}\xa5v'
p1629
ssS'_home_kelvin__virtualenvs_matienv_lib_python2_7_site-packages_django_contrib_staticfiles___init__'
p1630
(dp1631
g6
(dp1632
g8
S'_home_kelvin__virtualenvs_matienv_lib_python2_7_site-packages_django_contrib_staticfiles___init__.html'
p1633
sg10
S'/home/kelvin/.virtualenvs/matienv/lib/python2.7/site-packages/django/contrib/staticfiles/__init__'
p1634
sg12
g13
(g14
g15
NtRp1635
(dp1636
g18
I1
sg19
I0
sg20
I0
sg21
I0
sg22
I0
sg23
I0
sg24
I0
sbssg25
S'\xca\xf5\x9f\x7f\x88\xdfa\x831|T\x1d\xbc}\xa5v'
p1637
ssS'_home_kelvin__virtualenvs_matienv_lib_python2_7_site-packages_django_core___init__'
p1638
(dp1639
g6
(dp1640
g8
S'_home_kelvin__virtualenvs_matienv_lib_python2_7_site-packages_django_core___init__.html'
p1641
sg10
S'/home/kelvin/.virtualenvs/matienv/lib/python2.7/site-packages/django/core/__init__'
p1642
sg12
g13
(g14
g15
NtRp1643
(dp1644
g18
I1
sg19
I0
sg20
I0
sg21
I0
sg22
I0
sg23
I0
sg24
I0
sbssg25
S'\xca\xf5\x9f\x7f\x88\xdfa\x831|T\x1d\xbc}\xa5v'
p1645
ssS'_home_kelvin__virtualenvs_matienv_lib_python2_7_site-packages_django_utils_formats'
p1646
(dp1647
g6
(dp1648
g8
S'_home_kelvin__virtualenvs_matienv_lib_python2_7_site-packages_django_utils_formats.html'
p1649
sg10
S'/home/kelvin/.virtualenvs/matienv/lib/python2.7/site-packages/django/utils/formats'
p1650
sg12
g13
(g14
g15
NtRp1651
(dp1652
g18
I1
sg19
I0
sg20
I117
sg21
I0
sg22
I0
sg23
I58
sg24
I0
sbssg25
S"{\xfdt! '\xf6Y\x98\x14\xf6\x8d\xbf\xd74\xa5"
p1653
ssS'map_api_course_api'
p1654
(dp1655
g218
(dp1656
g8
S'map_api_course_api.html'
p1657
sg10
S'map/api/course_api'
p1658
sg12
g13
(g14
g15
NtRp1659
(dp1660
g18
I1
sg19
I0
sg20
I89
sg21
I0
sg22
I0
sg23
I80
sg24
I0
sbssg227
S'\xad\x15\x02\xd7\xb7j\xc7%\x862\xaf\xb9P\x0e\xb1\x84'
p1661
ssS'map_api_master_api'
p1662
(dp1663
g218
(dp1664
g8
S'map_api_master_api.html'
p1665
sg10
S'map/api/master_api'
p1666
sg12
g13
(g14
g15
NtRp1667
(dp1668
g18
I1
sg19
I0
sg20
I74
sg21
I0
sg22
I0
sg23
I62
sg24
I0
sbssg227
S'\x91\x82\x06EH)\xabF\xdd\x13*\xeb\xfb\xdc\x91\xfb'
p1669
ssS'_home_kelvin__virtualenvs_matienv_lib_python2_7_site-packages_django_db_backends_util'
p1670
(dp1671
g6
(dp1672
g31
S'_home_kelvin__virtualenvs_matienv_lib_python2_7_site-packages_django_db_backends_util.html'
p1673
sg33
S'/home/kelvin/.virtualenvs/matienv/lib/python2.7/site-packages/django/db/backends/util'
p1674
sg35
g13
(g14
g15
NtRp1675
(dp1676
g18
I1
sg19
I0
sg20
I110
sg21
I0
sg22
I0
sg23
I68
sg24
I0
sbssg25
S'&@\x86\xcf2\xa6\xa7\xcc\xb7Z\xcf\x05\xdc\x19[\x93'
p1677
ssS'_home_kelvin__virtualenvs_matienv_lib_python2_7_site-packages_rest_framework_negotiation'
p1678
(dp1679
g6
(dp1680
g8
S'_home_kelvin__virtualenvs_matienv_lib_python2_7_site-packages_rest_framework_negotiation.html'
p1681
sg10
S'/home/kelvin/.virtualenvs/matienv/lib/python2.7/site-packages/rest_framework/negotiation'
p1682
sg12
g13
(g14
g15
NtRp1683
(dp1684
g18
I1
sg19
I0
sg20
I41
sg21
I0
sg22
I0
sg23
I26
sg24
I0
sbssg25
S'\xd5\xaa\xf36\x83]$u\xa5\xb3.\x1b\xf7\xcb\x8e('
p1685
ssS'_home_kelvin__virtualenvs_matienv_lib_python2_7_site-packages_django_test_signals'
p1686
(dp1687
g6
(dp1688
g8
S'_home_kelvin__virtualenvs_matienv_lib_python2_7_site-packages_django_test_signals.html'
p1689
sg10
S'/home/kelvin/.virtualenvs/matienv/lib/python2.7/site-packages/django/test/signals'
p1690
sg12
g13
(g14
g15
NtRp1691
(dp1692
g18
I1
sg19
I0
sg20
I50
sg21
I0
sg22
I0
sg23
I35
sg24
I0
sbssg25
S'ge\x9f\x82 \xec\x0c\x05\x1b\x13\x1ah\x1fYor'
p1693
ssS'_home_kelvin__virtualenvs_matienv_lib_python2_7_site-packages_django_core_servers___init__'
p1694
(dp1695
g6
(dp1696
g8
S'_home_kelvin__virtualenvs_matienv_lib_python2_7_site-packages_django_core_servers___init__.html'
p1697
sg10
S'/home/kelvin/.virtualenvs/matienv/lib/python2.7/site-packages/django/core/servers/__init__'
p1698
sg12
g13
(g14
g15
NtRp1699
(dp1700
g18
I1
sg19
I0
sg20
I0
sg21
I0
sg22
I0
sg23
I0
sg24
I0
sbssg25
S'\xca\xf5\x9f\x7f\x88\xdfa\x831|T\x1d\xbc}\xa5v'
p1701
ssS'_home_kelvin__virtualenvs_matienv_lib_python2_7_site-packages_django_utils_regex_helper'
p1702
(dp1703
g6
(dp1704
g8
S'_home_kelvin__virtualenvs_matienv_lib_python2_7_site-packages_django_utils_regex_helper.html'
p1705
sg10
S'/home/kelvin/.virtualenvs/matienv/lib/python2.7/site-packages/django/utils/regex_helper'
p1706
sg12
g13
(g14
g15
NtRp1707
(dp1708
g18
I1
sg19
I0
sg20
I188
sg21
I0
sg22
I0
sg23
I90
sg24
I0
sbssg25
S'\x18U0\xbc\xa9\xf2\xe9\xf5\x9bKw\x0c\xd5\xe1\xf7d'
p1709
ssS'_home_kelvin__virtualenvs_matienv_lib_python2_7_site-packages_django_core_handlers_wsgi'
p1710
(dp1711
g6
(dp1712
g31
S'_home_kelvin__virtualenvs_matienv_lib_python2_7_site-packages_django_core_handlers_wsgi.html'
p1713
sg33
S'/home/kelvin/.virtualenvs/matienv/lib/python2.7/site-packages/django/core/handlers/wsgi'
p1714
sg35
g13
(g14
g15
NtRp1715
(dp1716
g18
I1
sg19
I0
sg20
I154
sg21
I0
sg22
I0
sg23
I77
sg24
I0
sbssg25
S'z\x88\xce\xa6\xd1\xbc& \x0c\xaf\xf9j\x83\xaf;R'
p1717
ssS'dimaps_urls'
p1718
(dp1719
g218
(dp1720
g8
S'dimaps_urls.html'
p1721
sg10
S'dimaps/urls'
p1722
sg12
g13
(g14
g15
NtRp1723
(dp1724
g18
I1
sg19
I0
sg20
I13
sg21
I0
sg22
I0
sg23
I0
sg24
I0
sbssg227
S'w\xa9\x0fN\x89\x81\x1e\xc6Y\x1a\xbc;\x97\x99v\xb2'
p1725
ssS'map_models'
p1726
(dp1727
g218
(dp1728
S'html_filename'
p1729
S'map_models.html'
p1730
sS'name'
p1731
S'map/models'
p1732
sS'nums'
p1733
g13
(g14
g15
NtRp1734
(dp1735
g18
I1
sg19
I0
sg20
I157
sg21
I0
sg22
I0
sg23
I25
sg24
I0
sbssg227
S'T\xf0\xf6?T\x8eL\xb6$\xc8$V4\x92N2'
p1736
ssS'_home_kelvin__virtualenvs_matienv_lib_python2_7_site-packages_django_db_models_fields___init__'
p1737
(dp1738
g6
(dp1739
g31
S'_home_kelvin__virtualenvs_matienv_lib_python2_7_site-packages_django_db_models_fields___init__.html'
p1740
sg33
S'/home/kelvin/.virtualenvs/matienv/lib/python2.7/site-packages/django/db/models/fields/__init__'
p1741
sg35
g13
(g14
g15
NtRp1742
(dp1743
g18
I1
sg19
I0
sg20
I837
sg21
I0
sg22
I0
sg23
I382
sg24
I0
sbssg25
S'\xc6\xee\xe2\xb8F\x7f7\xe0d}\xe3C+O\xdcs'
p1744
ssS'_home_kelvin__virtualenvs_matienv_lib_python2_7_site-packages_django_contrib_staticfiles_utils'
p1745
(dp1746
g6
(dp1747
g8
S'_home_kelvin__virtualenvs_matienv_lib_python2_7_site-packages_django_contrib_staticfiles_utils.html'
p1748
sg10
S'/home/kelvin/.virtualenvs/matienv/lib/python2.7/site-packages/django/contrib/staticfiles/utils'
p1749
sg12
g13
(g14
g15
NtRp1750
(dp1751
g18
I1
sg19
I0
sg20
I37
sg21
I0
sg22
I0
sg23
I30
sg24
I0
sbssg25
S'\xb6M\xd2B\xf1\x9e\x87\xba\r|\xc6\xed\x1c\xdb0\x88'
p1752
ssS'_home_kelvin__virtualenvs_matienv_lib_python2_7_site-packages_django_db_models_sql_query'
p1753
(dp1754
g6
(dp1755
g1206
S'_home_kelvin__virtualenvs_matienv_lib_python2_7_site-packages_django_db_models_sql_query.html'
p1756
sg1208
S'/home/kelvin/.virtualenvs/matienv/lib/python2.7/site-packages/django/db/models/sql/query'
p1757
sg1210
g13
(g14
g15
NtRp1758
(dp1759
g18
I1
sg19
I0
sg20
I929
sg21
I0
sg22
I0
sg23
I510
sg24
I0
sbssg25
S'\xa2\x9b\x83\x87\xf6\\\x90\x92\xa1\xcb\x8f<\xab\xa1L\xf8'
p1760
ssS'_home_kelvin__virtualenvs_matienv_lib_python2_7_site-packages_django_utils_tzinfo'
p1761
(dp1762
g6
(dp1763
g8
S'_home_kelvin__virtualenvs_matienv_lib_python2_7_site-packages_django_utils_tzinfo.html'
p1764
sg10
S'/home/kelvin/.virtualenvs/matienv/lib/python2.7/site-packages/django/utils/tzinfo'
p1765
sg12
g13
(g14
g15
NtRp1766
(dp1767
g18
I1
sg19
I0
sg20
I54
sg21
I0
sg22
I0
sg23
I35
sg24
I0
sbssg25
S'\xd7\xc3\xe6\xb8\xeaF\xf3X\xd8Y\x1a\x17\xcc\xa6\x9d\xcc'
p1768
ssS'_home_kelvin__virtualenvs_matienv_lib_python2_7_site-packages_rest_framework_parsers'
p1769
(dp1770
g6
(dp1771
g8
S'_home_kelvin__virtualenvs_matienv_lib_python2_7_site-packages_rest_framework_parsers.html'
p1772
sg10
S'/home/kelvin/.virtualenvs/matienv/lib/python2.7/site-packages/rest_framework/parsers'
p1773
sg12
g13
(g14
g15
NtRp1774
(dp1775
g18
I1
sg19
I0
sg20
I167
sg21
I0
sg22
I0
sg23
I126
sg24
I0
sbssg25
S't\x10\x1a\xcb<\x15\xfc\xbd!\x9d\x99\xa4\xe1n\x98a'
p1776
ssS'dimaps_models'
p1777
(dp1778
g218
(dp1779
g220
S'dimaps_models.html'
p1780
sg222
S'dimaps/models'
p1781
sg224
g13
(g14
g15
NtRp1782
(dp1783
g18
I1
sg19
I0
sg20
I63
sg21
I0
sg22
I0
sg23
I6
sg24
I0
sbssg227
S'\nc\x13\xbcn\xedmL\xa4a\xdcp\xb7\x07<1'
p1784
ssS'_home_kelvin__virtualenvs_matienv_lib_python2_7_site-packages_django_contrib_sessions_backends___init__'
p1785
(dp1786
g6
(dp1787
g8
S'_home_kelvin__virtualenvs_matienv_lib_python2_7_site-packages_django_contrib_sessions_backends___init__.html'
p1788
sg10
S'/home/kelvin/.virtualenvs/matienv/lib/python2.7/site-packages/django/contrib/sessions/backends/__init__'
p1789
sg12
g13
(g14
g15
NtRp1790
(dp1791
g18
I1
sg19
I0
sg20
I0
sg21
I0
sg22
I0
sg23
I0
sg24
I0
sbssg25
S'\xca\xf5\x9f\x7f\x88\xdfa\x831|T\x1d\xbc}\xa5v'
p1792
ssS'_home_kelvin__virtualenvs_matienv_lib_python2_7_site-packages_django_utils_http'
p1793
(dp1794
g6
(dp1795
g31
S'_home_kelvin__virtualenvs_matienv_lib_python2_7_site-packages_django_utils_http.html'
p1796
sg33
S'/home/kelvin/.virtualenvs/matienv/lib/python2.7/site-packages/django/utils/http'
p1797
sg35
g13
(g14
g15
NtRp1798
(dp1799
g18
I1
sg19
I0
sg20
I130
sg21
I0
sg22
I0
sg23
I80
sg24
I0
sbssg25
S'\x1f\x1b\x88\xb6\xd8\xdb|Et\xfc\xea\xdb\xd7I\x8aT'
p1800
ssS'_home_kelvin__virtualenvs_matienv_lib_python2_7_site-packages_django_views_static'
p1801
(dp1802
g6
(dp1803
g8
S'_home_kelvin__virtualenvs_matienv_lib_python2_7_site-packages_django_views_static.html'
p1804
sg10
S'/home/kelvin/.virtualenvs/matienv/lib/python2.7/site-packages/django/views/static'
p1805
sg12
g13
(g14
g15
NtRp1806
(dp1807
g18
I1
sg19
I0
sg20
I73
sg21
I0
sg22
I0
sg23
I57
sg24
I0
sbssg25
S'&5\x82E\x8b\xf0\xe2K\x17\xdf\x8b\x1a\xc4\xc8\xad\x83'
p1808
ssS'_home_kelvin__virtualenvs_matienv_lib_python2_7_site-packages_rest_framework_exceptions'
p1809
(dp1810
g6
(dp1811
g8
S'_home_kelvin__virtualenvs_matienv_lib_python2_7_site-packages_rest_framework_exceptions.html'
p1812
sg10
S'/home/kelvin/.virtualenvs/matienv/lib/python2.7/site-packages/rest_framework/exceptions'
p1813
sg12
g13
(g14
g15
NtRp1814
(dp1815
g18
I1
sg19
I0
sg20
I49
sg21
I0
sg22
I0
sg23
I12
sg24
I0
sbssg25
S'5\x1c\xdd\xf0i\xea\xa7\x89\xcb\xa4\x91\xbf\x8d\x04\x0eG'
p1816
ssS'_home_kelvin__virtualenvs_matienv_lib_python2_7_site-packages_django_template_response'
p1817
(dp1818
g6
(dp1819
g8
S'_home_kelvin__virtualenvs_matienv_lib_python2_7_site-packages_django_template_response.html'
p1820
sg10
S'/home/kelvin/.virtualenvs/matienv/lib/python2.7/site-packages/django/template/response'
p1821
sg12
g13
(g14
g15
NtRp1822
(dp1823
g18
I1
sg19
I0
sg20
I72
sg21
I0
sg22
I0
sg23
I50
sg24
I0
sbssg25
S'Y\xbe2#\xdcg\x1e\xa2\xda\x84\xe1\xbf\x15\x9f\xaf\x05'
p1824
ssS'_home_kelvin__virtualenvs_matienv_lib_python2_7_site-packages_django_db_backends_postgresql_psycopg2_creation'
p1825
(dp1826
g6
(dp1827
g8
S'_home_kelvin__virtualenvs_matienv_lib_python2_7_site-packages_django_db_backends_postgresql_psycopg2_creation.html'
p1828
sg10
S'/home/kelvin/.virtualenvs/matienv/lib/python2.7/site-packages/django/db/backends/postgresql_psycopg2/creation'
p1829
sg12
g13
(g14
g15
NtRp1830
(dp1831
g18
I1
sg19
I0
sg20
I30
sg21
I0
sg22
I0
sg23
I5
sg24
I0
sbssg25
S'\xf0\xaa\x8e\x91S\xdb\x0f1\x08\xb7\x0e/G\xa6kj'
p1832
ssS'_home_kelvin__virtualenvs_matienv_lib_python2_7_site-packages_django_db_models_deletion'
p1833
(dp1834
g6
(dp1835
g8
S'_home_kelvin__virtualenvs_matienv_lib_python2_7_site-packages_django_db_models_deletion.html'
p1836
sg10
S'/home/kelvin/.virtualenvs/matienv/lib/python2.7/site-packages/django/db/models/deletion'
p1837
sg12
g13
(g14
g15
NtRp1838
(dp1839
g18
I1
sg19
I0
sg20
I152
sg21
I0
sg22
I0
sg23
I126
sg24
I0
sbssg25
S'\x88.\xc7{\x87\xfd\x9aOD9\x9b\x90[^\xe1\xd9'
p1840
ssS'_home_kelvin__virtualenvs_matienv_lib_python2_7_site-packages_rest_framework_authentication'
p1841
(dp1842
g6
(dp1843
g8
S'_home_kelvin__virtualenvs_matienv_lib_python2_7_site-packages_rest_framework_authentication.html'
p1844
sg10
S'/home/kelvin/.virtualenvs/matienv/lib/python2.7/site-packages/rest_framework/authentication'
p1845
sg12
g13
(g14
g15
NtRp1846
(dp1847
g18
I1
sg19
I0
sg20
I179
sg21
I0
sg22
I0
sg23
I136
sg24
I0
sbssg25
S'\xa3\xd7\xcdW\x82\xd7x\xd39pz\x87\x19\xf6$\x9b'
p1848
ssS'_home_kelvin__virtualenvs_matienv_lib_python2_7_site-packages_django_core_management_base'
p1849
(dp1850
g6
(dp1851
g1206
S'_home_kelvin__virtualenvs_matienv_lib_python2_7_site-packages_django_core_management_base.html'
p1852
sg1208
S'/home/kelvin/.virtualenvs/matienv/lib/python2.7/site-packages/django/core/management/base'
p1853
sg1210
g13
(g14
g15
NtRp1854
(dp1855
g18
I1
sg19
I0
sg20
I144
sg21
I0
sg22
I0
sg23
I57
sg24
I0
sbssg25
S'wc\x95\xf9\x1b2(\xbd\xc3[\x03Lj+\xfc\xa7'
p1856
ssS'_home_kelvin__virtualenvs_matienv_lib_python2_7_site-packages_django_core_management_color'
p1857
(dp1858
g6
(dp1859
g8
S'_home_kelvin__virtualenvs_matienv_lib_python2_7_site-packages_django_core_management_color.html'
p1860
sg10
S'/home/kelvin/.virtualenvs/matienv/lib/python2.7/site-packages/django/core/management/color'
p1861
sg12
g13
(g14
g15
NtRp1862
(dp1863
g18
I1
sg19
I0
sg20
I28
sg21
I0
sg22
I0
sg23
I3
sg24
I0
sbssg25
S"\x97\x1d}\xfa\xe0\xf3\xe1\x86a\x9fF'\xcf(\xb5j"
p1864
ssS'_home_kelvin__virtualenvs_matienv_lib_python2_7_site-packages_south_db_generic'
p1865
(dp1866
g6
(dp1867
g8
S'_home_kelvin__virtualenvs_matienv_lib_python2_7_site-packages_south_db_generic.html'
p1868
sg10
S'/home/kelvin/.virtualenvs/matienv/lib/python2.7/site-packages/south/db/generic'
p1869
sg12
g13
(g14
g15
NtRp1870
(dp1871
g18
I1
sg19
I0
sg20
I585
sg21
I0
sg22
I0
sg23
I403
sg24
I0
sbssg25
S'\xba\x00\x81\xde\xcf\xc8qE\xe5\x83\xd2h\x0eYs\xf1'
p1872
ssS'map_views_teacher_views'
p1873
(dp1874
g218
(dp1875
g8
S'map_views_teacher_views.html'
p1876
sg10
S'map/views/teacher_views'
p1877
sg12
g13
(g14
g15
NtRp1878
(dp1879
g18
I1
sg19
I0
sg20
I55
sg21
I0
sg22
I0
sg23
I45
sg24
I0
sbssg227
S'\xa7\x95d\x9duT\xbd\xe1\xaf\x195w\x88\xf0j\xd1'
p1880
ssS'_home_kelvin__virtualenvs_matienv_lib_python2_7_site-packages_django_utils_dates'
p1881
(dp1882
g6
(dp1883
g8
S'_home_kelvin__virtualenvs_matienv_lib_python2_7_site-packages_django_utils_dates.html'
p1884
sg10
S'/home/kelvin/.virtualenvs/matienv/lib/python2.7/site-packages/django/utils/dates'
p1885
sg12
g13
(g14
g15
NtRp1886
(dp1887
g18
I1
sg19
I0
sg20
I9
sg21
I0
sg22
I0
sg23
I0
sg24
I0
sbssg25
S'\xaa\xd0\xb6\xf0{\x0b\xfe\xc2\xe5J\xa1\xe1"\xf7\xc28'
p1888
ssS'_home_kelvin__virtualenvs_matienv_lib_python2_7_site-packages_django_utils_translation___init__'
p1889
(dp1890
g6
(dp1891
g8
S'_home_kelvin__virtualenvs_matienv_lib_python2_7_site-packages_django_utils_translation___init__.html'
p1892
sg10
S'/home/kelvin/.virtualenvs/matienv/lib/python2.7/site-packages/django/utils/translation/__init__'
p1893
sg12
g13
(g14
g15
NtRp1894
(dp1895
g18
I1
sg19
I0
sg20
I110
sg21
I0
sg22
I0
sg23
I48
sg24
I0
sbssg25
S'\xe3\xcd6\x18\x99[O\x11\xb3S\xde\x91\xdd:\xcbx'
p1896
ssS'_home_kelvin__virtualenvs_matienv_lib_python2_7_site-packages_django_contrib_staticfiles_templatetags___init__'
p1897
(dp1898
g6
(dp1899
g8
S'_home_kelvin__virtualenvs_matienv_lib_python2_7_site-packages_django_contrib_staticfiles_templatetags___init__.html'
p1900
sg10
S'/home/kelvin/.virtualenvs/matienv/lib/python2.7/site-packages/django/contrib/staticfiles/templatetags/__init__'
p1901
sg12
g13
(g14
g15
NtRp1902
(dp1903
g18
I1
sg19
I0
sg20
I0
sg21
I0
sg22
I0
sg23
I0
sg24
I0
sbssg25
S'\xca\xf5\x9f\x7f\x88\xdfa\x831|T\x1d\xbc}\xa5v'
p1904
ssS'_home_kelvin__virtualenvs_matienv_lib_python2_7_site-packages_django___init__'
p1905
(dp1906
g6
(dp1907
g8
S'_home_kelvin__virtualenvs_matienv_lib_python2_7_site-packages_django___init__.html'
p1908
sg10
S'/home/kelvin/.virtualenvs/matienv/lib/python2.7/site-packages/django/__init__'
p1909
sg12
g13
(g14
g15
NtRp1910
(dp1911
g18
I1
sg19
I0
sg20
I4
sg21
I0
sg22
I0
sg23
I0
sg24
I0
sbssg25
S'\xed@1.\x94\xf7(\x03hM\xb3\n\x0f\xac\xd4;'
p1912
ssS'map_views_master_views'
p1913
(dp1914
g218
(dp1915
g8
S'map_views_master_views.html'
p1916
sg10
S'map/views/master_views'
p1917
sg12
g13
(g14
g15
NtRp1918
(dp1919
g18
I1
sg19
I0
sg20
I61
sg21
I0
sg22
I0
sg23
I47
sg24
I0
sbssg227
S',\xbe\xf9\xe0\xfa\xbe\xbf>2\xb1\xe9\xeb\x9c^\x9dZ'
p1920
ssS'_home_kelvin__virtualenvs_matienv_lib_python2_7_site-packages_django_core_mail___init__'
p1921
(dp1922
g6
(dp1923
g8
S'_home_kelvin__virtualenvs_matienv_lib_python2_7_site-packages_django_core_mail___init__.html'
p1924
sg10
S'/home/kelvin/.virtualenvs/matienv/lib/python2.7/site-packages/django/core/mail/__init__'
p1925
sg12
g13
(g14
g15
NtRp1926
(dp1927
g18
I1
sg19
I0
sg20
I29
sg21
I0
sg22
I0
sg23
I19
sg24
I0
sbssg25
S'\xa329U/O6F\xe8A+\xba\xb3\x96~\x7f'
p1928
ssS'_home_kelvin__virtualenvs_matienv_lib_python2_7_site-packages_django_db_models___init__'
p1929
(dp1930
g6
(dp1931
g8
S'_home_kelvin__virtualenvs_matienv_lib_python2_7_site-packages_django_db_models___init__.html'
p1932
sg10
S'/home/kelvin/.virtualenvs/matienv/lib/python2.7/site-packages/django/db/models/__init__'
p1933
sg12
g13
(g14
g15
NtRp1934
(dp1935
g18
I1
sg19
I0
sg20
I20
sg21
I0
sg22
I0
sg23
I2
sg24
I0
sbssg25
S'\x81p\x16\xc6\xbe\x97} Z\xd3\x9dd\xa9\xc5j}'
p1936
ssS'_home_kelvin__virtualenvs_matienv_lib_python2_7_site-packages_south_management___init__'
p1937
(dp1938
g6
(dp1939
g8
S'_home_kelvin__virtualenvs_matienv_lib_python2_7_site-packages_south_management___init__.html'
p1940
sg10
S'/home/kelvin/.virtualenvs/matienv/lib/python2.7/site-packages/south/management/__init__'
p1941
sg12
g13
(g14
g15
NtRp1942
(dp1943
g18
I1
sg19
I0
sg20
I0
sg21
I0
sg22
I0
sg23
I0
sg24
I0
sbssg25
S'\xca\xf5\x9f\x7f\x88\xdfa\x831|T\x1d\xbc}\xa5v'
p1944
ssS'_home_kelvin__virtualenvs_matienv_lib_python2_7_site-packages_psycopg2__json'
p1945
(dp1946
g6
(dp1947
g8
S'_home_kelvin__virtualenvs_matienv_lib_python2_7_site-packages_psycopg2__json.html'
p1948
sg10
S'/home/kelvin/.virtualenvs/matienv/lib/python2.7/site-packages/psycopg2/_json'
p1949
sg12
g13
(g14
g15
NtRp1950
(dp1951
g18
I1
sg19
I0
sg20
I71
sg21
I0
sg22
I0
sg23
I36
sg24
I0
sbssg25
S'\xf6t\t1\x01\xcf\xb0P\xa9Z|??\x89\xe4/'
p1952
ssS'_home_kelvin__virtualenvs_matienv_lib_python2_7_site-packages_django_db_backends_signals'
p1953
(dp1954
g6
(dp1955
g8
S'_home_kelvin__virtualenvs_matienv_lib_python2_7_site-packages_django_db_backends_signals.html'
p1956
sg10
S'/home/kelvin/.virtualenvs/matienv/lib/python2.7/site-packages/django/db/backends/signals'
p1957
sg12
g13
(g14
g15
NtRp1958
(dp1959
g18
I1
sg19
I0
sg20
I2
sg21
I0
sg22
I0
sg23
I0
sg24
I0
sbssg25
S'\xd0\x7fA\xfb\xdfoE\xbc.\x17\x18\xd7\xa5\xbf\x04\xe4'
p1960
ssS'_home_kelvin__virtualenvs_matienv_lib_python2_7_site-packages_django_utils_six'
p1961
(dp1962
g6
(dp1963
g8
S'_home_kelvin__virtualenvs_matienv_lib_python2_7_site-packages_django_utils_six.html'
p1964
sg10
S'/home/kelvin/.virtualenvs/matienv/lib/python2.7/site-packages/django/utils/six'
p1965
sg12
g13
(g14
g15
NtRp1966
(dp1967
g18
I1
sg19
I0
sg20
I311
sg21
I0
sg22
I0
sg23
I136
sg24
I0
sbssg25
S';\x99\xdd\xcc\x8e$\xbakN@\x82\x1b\x1b\x18)\xfc'
p1968
ssS'_home_kelvin__virtualenvs_matienv_lib_python2_7_site-packages_django_contrib_auth_signals'
p1969
(dp1970
g6
(dp1971
g8
S'_home_kelvin__virtualenvs_matienv_lib_python2_7_site-packages_django_contrib_auth_signals.html'
p1972
sg10
S'/home/kelvin/.virtualenvs/matienv/lib/python2.7/site-packages/django/contrib/auth/signals'
p1973
sg12
g13
(g14
g15
NtRp1974
(dp1975
g18
I1
sg19
I0
sg20
I4
sg21
I0
sg22
I0
sg23
I0
sg24
I0
sbssg25
S'\x89\x9c\xaa;\xc3\xa0\x92\xe0\x14HX\x86\x17\\\xf6z'
p1976
ssS'_home_kelvin__virtualenvs_matienv_lib_python2_7_site-packages_django_db_models_sql_subqueries'
p1977
(dp1978
g6
(dp1979
g31
S'_home_kelvin__virtualenvs_matienv_lib_python2_7_site-packages_django_db_models_sql_subqueries.html'
p1980
sg33
S'/home/kelvin/.virtualenvs/matienv/lib/python2.7/site-packages/django/db/models/sql/subqueries'
p1981
sg35
g13
(g14
g15
NtRp1982
(dp1983
g18
I1
sg19
I0
sg20
I152
sg21
I0
sg22
I0
sg23
I88
sg24
I0
sbssg25
S'p!l\x9e?Y\xaf7\x0f\xf8/M\xa0h\x1e\xde'
p1984
ssS'_home_kelvin__virtualenvs_matienv_lib_python2_7_site-packages_django_contrib_auth_management___init__'
p1985
(dp1986
g6
(dp1987
g8
S'_home_kelvin__virtualenvs_matienv_lib_python2_7_site-packages_django_contrib_auth_management___init__.html'
p1988
sg10
S'/home/kelvin/.virtualenvs/matienv/lib/python2.7/site-packages/django/contrib/auth/management/__init__'
p1989
sg12
g13
(g14
g15
NtRp1990
(dp1991
g18
I1
sg19
I0
sg20
I101
sg21
I0
sg22
I0
sg23
I49
sg24
I0
sbssg25
S'\xac[[\xa7\x9f\x84\xa9\xd1\x11eL\x05+\xa9Gq'
p1992
ssS'_home_kelvin__virtualenvs_matienv_lib_python2_7_site-packages_django_contrib_admin_actions'
p1993
(dp1994
g6
(dp1995
g8
S'_home_kelvin__virtualenvs_matienv_lib_python2_7_site-packages_django_contrib_admin_actions.html'
p1996
sg10
S'/home/kelvin/.virtualenvs/matienv/lib/python2.7/site-packages/django/contrib/admin/actions'
p1997
sg12
g13
(g14
g15
NtRp1998
(dp1999
g18
I1
sg19
I0
sg20
I35
sg21
I0
sg22
I0
sg23
I25
sg24
I0
sbssg25
S'\xbby\xcf\x97\xa0A\x842\x18\xd8\x87/#\xedDi'
p2000
ssS'_home_kelvin__virtualenvs_matienv_lib_python2_7_site-packages_django_utils_baseconv'
p2001
(dp2002
g6
(dp2003
g8
S'_home_kelvin__virtualenvs_matienv_lib_python2_7_site-packages_django_utils_baseconv.html'
p2004
sg10
S'/home/kelvin/.virtualenvs/matienv/lib/python2.7/site-packages/django/utils/baseconv'
p2005
sg12
g13
(g14
g15
NtRp2006
(dp2007
g18
I1
sg19
I0
sg20
I48
sg21
I0
sg22
I0
sg23
I25
sg24
I0
sbssg25
S'\x10o\xe0R\x15\xc8\xd3.&\xfa\xd7"k\xbf\xa1Z'
p2008
ssS'map_views'
p2009
(dp2010
g218
(dp2011
g220
S'map_views.html'
p2012
sg222
S'map/views'
p2013
sg224
g13
(g14
g15
NtRp2014
(dp2015
g18
I1
sg19
I0
sg20
I1
sg21
I0
sg22
I0
sg23
I1
sg24
I0
sbssg227
S'\xab\x9bR\xdb\x89\xc6Q\x9e\xc8\xd7\xcf\xe4\xc8\xcb\x83\x0f'
p2016
ssS'_home_kelvin__virtualenvs_matienv_lib_python2_7_site-packages_django_forms___init__'
p2017
(dp2018
g6
(dp2019
g8
S'_home_kelvin__virtualenvs_matienv_lib_python2_7_site-packages_django_forms___init__.html'
p2020
sg10
S'/home/kelvin/.virtualenvs/matienv/lib/python2.7/site-packages/django/forms/__init__'
p2021
sg12
g13
(g14
g15
NtRp2022
(dp2023
g18
I1
sg19
I0
sg20
I6
sg21
I0
sg22
I0
sg23
I0
sg24
I0
sbssg25
S'\x88c<\x81\x87\x93\x07\xbe\n\x04\x10Lng\xe5\x95'
p2024
ssS'map_views_folder_views'
p2025
(dp2026
g218
(dp2027
g8
S'map_views_folder_views.html'
p2028
sg10
S'map/views/folder_views'
p2029
sg12
g13
(g14
g15
NtRp2030
(dp2031
g18
I1
sg19
I0
sg20
I59
sg21
I0
sg22
I0
sg23
I48
sg24
I0
sbssg227
S'v\x0c\x10f\xfa\x13J\xf0\xa6\xdc/\x11\x8bpv\x9a'
p2032
ssS'_home_kelvin__virtualenvs_matienv_lib_python2_7_site-packages_django_db_models_expressions'
p2033
(dp2034
g6
(dp2035
g8
S'_home_kelvin__virtualenvs_matienv_lib_python2_7_site-packages_django_db_models_expressions.html'
p2036
sg10
S'/home/kelvin/.virtualenvs/matienv/lib/python2.7/site-packages/django/db/models/expressions'
p2037
sg12
g13
(g14
g15
NtRp2038
(dp2039
g18
I1
sg19
I0
sg20
I94
sg21
I0
sg22
I0
sg23
I50
sg24
I0
sbssg25
S'\x9fV-\x87T\xd5S\xe7)\xc5@\x05 \xe4\x85$'
p2040
ssS'_home_kelvin__virtualenvs_matienv_lib_python2_7_site-packages_django_db_models_query'
p2041
(dp2042
g6
(dp2043
g1206
S'_home_kelvin__virtualenvs_matienv_lib_python2_7_site-packages_django_db_models_query.html'
p2044
sg1208
S'/home/kelvin/.virtualenvs/matienv/lib/python2.7/site-packages/django/db/models/query'
p2045
sg1210
g13
(g14
g15
NtRp2046
(dp2047
g18
I1
sg19
I0
sg20
I889
sg21
I0
sg22
I0
sg23
I590
sg24
I0
sbssg25
S'5l\x15\xa2P;\xf0\x84X\xb4K\xe3\xb9\xd2\xb6\xcc'
p2048
ssS'_home_kelvin__virtualenvs_matienv_lib_python2_7_site-packages_django_utils_importlib'
p2049
(dp2050
g6
(dp2051
g8
S'_home_kelvin__virtualenvs_matienv_lib_python2_7_site-packages_django_utils_importlib.html'
p2052
sg10
S'/home/kelvin/.virtualenvs/matienv/lib/python2.7/site-packages/django/utils/importlib'
p2053
sg12
g13
(g14
g15
NtRp2054
(dp2055
g18
I1
sg19
I0
sg20
I26
sg21
I0
sg22
I0
sg23
I7
sg24
I0
sbssg25
S"g\xa7\xbe' \x98\x16\x85\xd4\xd4[\xbd\xd0\xd6\xd2\xd1"
p2056
ssS'_home_kelvin__virtualenvs_matienv_lib_python2_7_site-packages_django_core_management___init__'
p2057
(dp2058
g6
(dp2059
g31
S'_home_kelvin__virtualenvs_matienv_lib_python2_7_site-packages_django_core_management___init__.html'
p2060
sg33
S'/home/kelvin/.virtualenvs/matienv/lib/python2.7/site-packages/django/core/management/__init__'
p2061
sg35
g13
(g14
g15
NtRp2062
(dp2063
g18
I1
sg19
I0
sg20
I185
sg21
I0
sg22
I0
sg23
I78
sg24
I0
sbssg25
S'\xe6\x966\x9d\xf4\x89\xd4\xa5\x06\x98\x99\xba\x92\xfft\xb6'
p2064
ssS'_home_kelvin__virtualenvs_matienv_lib_python2_7_site-packages_django_utils_text'
p2065
(dp2066
g6
(dp2067
g8
S'_home_kelvin__virtualenvs_matienv_lib_python2_7_site-packages_django_utils_text.html'
p2068
sg10
S'/home/kelvin/.virtualenvs/matienv/lib/python2.7/site-packages/django/utils/text'
p2069
sg12
g13
(g14
g15
NtRp2070
(dp2071
g18
I1
sg19
I0
sg20
I227
sg21
I0
sg22
I0
sg23
I168
sg24
I0
sbssg25
S'Y\xf9\xda\x8e\xc7\xdeD\xe7\x12D\xe9X\xeb\xb9R\x8e'
p2072
ssS'_home_kelvin__virtualenvs_matienv_lib_python2_7_site-packages_south_orm'
p2073
(dp2074
g6
(dp2075
g8
S'_home_kelvin__virtualenvs_matienv_lib_python2_7_site-packages_south_orm.html'
p2076
sg10
S'/home/kelvin/.virtualenvs/matienv/lib/python2.7/site-packages/south/orm'
p2077
sg12
g13
(g14
g15
NtRp2078
(dp2079
g18
I1
sg19
I0
sg20
I209
sg21
I0
sg22
I0
sg23
I159
sg24
I0
sbssg25
S'\\K\xcd\xed\xc7\x11\xfa\x99\x1fj\xab;\xeesh\x87'
p2080
ssS'map_api___init__'
p2081
(dp2082
g218
(dp2083
g8
S'map_api___init__.html'
p2084
sg10
S'map/api/__init__'
p2085
sg12
g13
(g14
g15
NtRp2086
(dp2087
g18
I1
sg19
I0
sg20
I0
sg21
I0
sg22
I0
sg23
I0
sg24
I0
sbssg227
S'\xca\xf5\x9f\x7f\x88\xdfa\x831|T\x1d\xbc}\xa5v'
p2088
ssS'dimaps___init__'
p2089
(dp2090
g218
(dp2091
g220
S'dimaps___init__.html'
p2092
sg222
S'dimaps/__init__'
p2093
sg224
g13
(g14
g15
NtRp2094
(dp2095
g18
I1
sg19
I0
sg20
I0
sg21
I0
sg22
I0
sg23
I0
sg24
I0
sbssg227
S'\xca\xf5\x9f\x7f\x88\xdfa\x831|T\x1d\xbc}\xa5v'
p2096
ssS'_home_kelvin__virtualenvs_matienv_lib_python2_7_site-packages_django_contrib_auth_models'
p2097
(dp2098
g6
(dp2099
g31
S'_home_kelvin__virtualenvs_matienv_lib_python2_7_site-packages_django_contrib_auth_models.html'
p2100
sg33
S'/home/kelvin/.virtualenvs/matienv/lib/python2.7/site-packages/django/contrib/auth/models'
p2101
sg35
g13
(g14
g15
NtRp2102
(dp2103
g18
I1
sg19
I0
sg20
I260
sg21
I0
sg22
I0
sg23
I114
sg24
I0
sbssg25
S'\x0c\xcd\x00*\xf92\xfcI\xf2,\xc0G\x96\x99~D'
p2104
ssS'_home_kelvin__virtualenvs_matienv_lib_python2_7_site-packages_south_migration_migrators'
p2105
(dp2106
g6
(dp2107
g31
S'_home_kelvin__virtualenvs_matienv_lib_python2_7_site-packages_south_migration_migrators.html'
p2108
sg33
S'/home/kelvin/.virtualenvs/matienv/lib/python2.7/site-packages/south/migration/migrators'
p2109
sg35
g13
(g14
g15
NtRp2110
(dp2111
g18
I1
sg19
I0
sg20
I240
sg21
I0
sg22
I0
sg23
I129
sg24
I0
sbssg25
S'\xa9K \xa5}I\x8fkP\x14~u\xa7\xafH\xfa'
p2112
ssS'_home_kelvin__virtualenvs_matienv_lib_python2_7_site-packages_rest_framework_models'
p2113
(dp2114
g6
(dp2115
g8
S'_home_kelvin__virtualenvs_matienv_lib_python2_7_site-packages_rest_framework_models.html'
p2116
sg10
S'/home/kelvin/.virtualenvs/matienv/lib/python2.7/site-packages/rest_framework/models'
p2117
sg12
g13
(g14
g15
NtRp2118
(dp2119
g18
I1
sg19
I0
sg20
I0
sg21
I0
sg22
I0
sg23
I0
sg24
I0
sbssg25
S'\xfe\xb8\x93\xd0\xf6\xb2\xa7\x8e\x02\xa4\x10\xc0\x93\xe4\x9a\x1a'
p2120
ssS'_home_kelvin__virtualenvs_matienv_lib_python2_7_site-packages_django_core_wsgi'
p2121
(dp2122
g6
(dp2123
g8
S'_home_kelvin__virtualenvs_matienv_lib_python2_7_site-packages_django_core_wsgi.html'
p2124
sg10
S'/home/kelvin/.virtualenvs/matienv/lib/python2.7/site-packages/django/core/wsgi'
p2125
sg12
g13
(g14
g15
NtRp2126
(dp2127
g18
I1
sg19
I0
sg20
I3
sg21
I0
sg22
I0
sg23
I1
sg24
I0
sbssg25
S'\x05@\x04,\x8d\xbb\xc9\x97\xb6\xcc;\x06\t\xbb\xb7\xfb'
p2128
ssS'_home_kelvin__virtualenvs_matienv_lib_python2_7_site-packages_django_utils_decorators'
p2129
(dp2130
g6
(dp2131
g8
S'_home_kelvin__virtualenvs_matienv_lib_python2_7_site-packages_django_utils_decorators.html'
p2132
sg10
S'/home/kelvin/.virtualenvs/matienv/lib/python2.7/site-packages/django/utils/decorators'
p2133
sg12
g13
(g14
g15
NtRp2134
(dp2135
g18
I1
sg19
I0
sg20
I62
sg21
I0
sg22
I0
sg23
I32
sg24
I0
sbssg25
S'd9\x07\x90\xbd,\xcd\x94Q\\n\xd6\xf3\xa1\xe8\x88'
p2136
ssS'_home_kelvin__virtualenvs_matienv_lib_python2_7_site-packages_django_db_models_aggregates'
p2137
(dp2138
g6
(dp2139
g8
S'_home_kelvin__virtualenvs_matienv_lib_python2_7_site-packages_django_db_models_aggregates.html'
p2140
sg10
S'/home/kelvin/.virtualenvs/matienv/lib/python2.7/site-packages/django/db/models/aggregates'
p2141
sg12
g13
(g14
g15
NtRp2142
(dp2143
g18
I1
sg19
I0
sg20
I31
sg21
I0
sg22
I0
sg23
I7
sg24
I0
sbssg25
S'h1I\x13\xd4\xe9\xf2\x0fh\x1b\xb2T\x99\x9b\xba\xbd'
p2144
ssS'_home_kelvin__virtualenvs_matienv_lib_python2_7_site-packages_django_views_generic_detail'
p2145
(dp2146
g6
(dp2147
g8
S'_home_kelvin__virtualenvs_matienv_lib_python2_7_site-packages_django_views_generic_detail.html'
p2148
sg10
S'/home/kelvin/.virtualenvs/matienv/lib/python2.7/site-packages/django/views/generic/detail'
p2149
sg12
g13
(g14
g15
NtRp2150
(dp2151
g18
I1
sg19
I0
sg20
I77
sg21
I0
sg22
I0
sg23
I52
sg24
I0
sbssg25
S'\x16\xa7\xb5U[M\x1c\xe6\x1c\xc4V\x8cg\xc2\x95\xfc'
p2152
ssS'_home_kelvin__virtualenvs_matienv_lib_python2_7_site-packages_django_db_utils'
p2153
(dp2154
g6
(dp2155
g31
S'_home_kelvin__virtualenvs_matienv_lib_python2_7_site-packages_django_db_utils.html'
p2156
sg33
S'/home/kelvin/.virtualenvs/matienv/lib/python2.7/site-packages/django/db/utils'
p2157
sg35
g13
(g14
g15
NtRp2158
(dp2159
g18
I1
sg19
I0
sg20
I172
sg21
I0
sg22
I0
sg23
I57
sg24
I0
sbssg25
S'w\xee\xdc\xa7\xcf\xad\xc4\x7f6\x05b1\xe8W\xae5'
p2160
ssS'_home_kelvin__virtualenvs_matienv_lib_python2_7_site-packages_south_management_commands___init__'
p2161
(dp2162
g6
(dp2163
g8
S'_home_kelvin__virtualenvs_matienv_lib_python2_7_site-packages_south_management_commands___init__.html'
p2164
sg10
S'/home/kelvin/.virtualenvs/matienv/lib/python2.7/site-packages/south/management/commands/__init__'
p2165
sg12
g13
(g14
g15
NtRp2166
(dp2167
g18
I1
sg19
I0
sg20
I18
sg21
I0
sg22
I0
sg23
I1
sg24
I0
sbssg25
S'\xd4Nvl\x97\xa8\x08\xee\xcbl\xe7?c?\xaf\xac'
p2168
ssS'_home_kelvin__virtualenvs_matienv_lib_python2_7_site-packages_django_core_exceptions'
p2169
(dp2170
g6
(dp2171
g8
S'_home_kelvin__virtualenvs_matienv_lib_python2_7_site-packages_django_core_exceptions.html'
p2172
sg10
S'/home/kelvin/.virtualenvs/matienv/lib/python2.7/site-packages/django/core/exceptions'
p2173
sg12
g13
(g14
g15
NtRp2174
(dp2175
g18
I1
sg19
I0
sg20
I76
sg21
I0
sg22
I0
sg23
I40
sg24
I0
sbssg25
S"(}/8r'\xc6\x101\xa5\xe5\xbeS\xe3Q\x8f"
p2176
ssS'_home_kelvin__virtualenvs_matienv_lib_python2_7_site-packages_django_db_models_loading'
p2177
(dp2178
g6
(dp2179
g8
S'_home_kelvin__virtualenvs_matienv_lib_python2_7_site-packages_django_db_models_loading.html'
p2180
sg10
S'/home/kelvin/.virtualenvs/matienv/lib/python2.7/site-packages/django/db/models/loading'
p2181
sg12
g13
(g14
g15
NtRp2182
(dp2183
g18
I1
sg19
I0
sg20
I152
sg21
I0
sg22
I0
sg23
I31
sg24
I0
sbssg25
S'\x96\x88==\x89\xb6R\xe5\xe9\xadcy\x8a\xce\x7f\xf4'
p2184
ssS'_home_kelvin__virtualenvs_matienv_lib_python2_7_site-packages_django_utils_synch'
p2185
(dp2186
g6
(dp2187
g8
S'_home_kelvin__virtualenvs_matienv_lib_python2_7_site-packages_django_utils_synch.html'
p2188
sg10
S'/home/kelvin/.virtualenvs/matienv/lib/python2.7/site-packages/django/utils/synch'
p2189
sg12
g13
(g14
g15
NtRp2190
(dp2191
g18
I1
sg19
I0
sg20
I59
sg21
I0
sg22
I0
sg23
I41
sg24
I0
sbssg25
S'\x1d\x7f\x84\xd0\xf3\xbc\xb6\xf4\x9c\xa7\x06c\xf5A\xc70'
p2192
ssS'_home_kelvin__virtualenvs_matienv_lib_python2_7_site-packages_django_core_files_uploadedfile'
p2193
(dp2194
g6
(dp2195
g8
S'_home_kelvin__virtualenvs_matienv_lib_python2_7_site-packages_django_core_files_uploadedfile.html'
p2196
sg10
S'/home/kelvin/.virtualenvs/matienv/lib/python2.7/site-packages/django/core/files/uploadedfile'
p2197
sg12
g13
(g14
g15
NtRp2198
(dp2199
g18
I1
sg19
I0
sg20
I60
sg21
I0
sg22
I0
sg23
I32
sg24
I0
sbssg25
S'Wl\xd0S\xd7\xc1;\x1f\xce\x1dj\xd7\n5\xd9\x80'
p2200
ssS'_home_kelvin__virtualenvs_matienv_lib_python2_7_site-packages_django_contrib_contenttypes_generic'
p2201
(dp2202
g6
(dp2203
g8
S'_home_kelvin__virtualenvs_matienv_lib_python2_7_site-packages_django_contrib_contenttypes_generic.html'
p2204
sg10
S'/home/kelvin/.virtualenvs/matienv/lib/python2.7/site-packages/django/contrib/contenttypes/generic'
p2205
sg12
g13
(g14
g15
NtRp2206
(dp2207
g18
I1
sg19
I0
sg20
I273
sg21
I0
sg22
I0
sg23
I210
sg24
I0
sbssg25
S'i\x07\xdae\xb10\x80\xc9gYH\xd3E\xa9\xd1\x85'
p2208
ssS'_home_kelvin__virtualenvs_matienv_lib_python2_7_site-packages_django_db_models_fields_subclassing'
p2209
(dp2210
g6
(dp2211
g8
S'_home_kelvin__virtualenvs_matienv_lib_python2_7_site-packages_django_db_models_fields_subclassing.html'
p2212
sg10
S'/home/kelvin/.virtualenvs/matienv/lib/python2.7/site-packages/django/db/models/fields/subclassing'
p2213
sg12
g13
(g14
g15
NtRp2214
(dp2215
g18
I1
sg19
I0
sg20
I21
sg21
I0
sg22
I0
sg23
I14
sg24
I0
sbssg25
S'\xfd\xd2YH\xdb\x1a6<\xf8\xa0\xbc\x99fr\x0f\x8a'
p2216
ssS'_home_kelvin__virtualenvs_matienv_lib_python2_7_site-packages_django_forms_forms'
p2217
(dp2218
g6
(dp2219
g8
S'_home_kelvin__virtualenvs_matienv_lib_python2_7_site-packages_django_forms_forms.html'
p2220
sg10
S'/home/kelvin/.virtualenvs/matienv/lib/python2.7/site-packages/django/forms/forms'
p2221
sg12
g13
(g14
g15
NtRp2222
(dp2223
g18
I1
sg19
I0
sg20
I290
sg21
I0
sg22
I0
sg23
I209
sg24
I0
sbssg25
S'_\x84\xb3\xf5W\x86\x9b\x14\xb7\xce\xcb<0\xe1\xb1W'
p2224
ssS'_home_kelvin__virtualenvs_matienv_lib_python2_7_site-packages_django_dispatch_dispatcher'
p2225
(dp2226
g6
(dp2227
g31
S'_home_kelvin__virtualenvs_matienv_lib_python2_7_site-packages_django_dispatch_dispatcher.html'
p2228
sg33
S'/home/kelvin/.virtualenvs/matienv/lib/python2.7/site-packages/django/dispatch/dispatcher'
p2229
sg35
g13
(g14
g15
NtRp2230
(dp2231
g18
I1
sg19
I0
sg20
I122
sg21
I0
sg22
I0
sg23
I22
sg24
I0
sbssg25
S'}\x9a;\xc6P\x0f\x12"\xe4\x9b8\xce\xcd\xdf[\xe6'
p2232
ssS'_home_kelvin__virtualenvs_matienv_lib_python2_7_site-packages_django_db_models_manager'
p2233
(dp2234
g6
(dp2235
g31
S'_home_kelvin__virtualenvs_matienv_lib_python2_7_site-packages_django_db_models_manager.html'
p2236
sg33
S'/home/kelvin/.virtualenvs/matienv/lib/python2.7/site-packages/django/db/models/manager'
p2237
sg35
g13
(g14
g15
NtRp2238
(dp2239
g18
I1
sg19
I0
sg20
I170
sg21
I0
sg22
I0
sg23
I42
sg24
I0
sbssg25
S'\x94\xee\xb8\xa5S\xa1;\x16\xb7\x1e\xb3\x901\xd9\x03\xd8'
p2240
ssS'_home_kelvin__virtualenvs_matienv_lib_python2_7_site-packages_rest_framework_utils_formatting'
p2241
(dp2242
g6
(dp2243
g8
S'_home_kelvin__virtualenvs_matienv_lib_python2_7_site-packages_rest_framework_utils_formatting.html'
p2244
sg10
S'/home/kelvin/.virtualenvs/matienv/lib/python2.7/site-packages/rest_framework/utils/formatting'
p2245
sg12
g13
(g14
g15
NtRp2246
(dp2247
g18
I1
sg19
I0
sg20
I25
sg21
I0
sg22
I0
sg23
I16
sg24
I0
sbssg25
S'\xa0-\xc8V\r}j\x88C\xd4AkM\x8e\x1c\xc0'
p2248
ssS'map_admin'
p2249
(dp2250
g218
(dp2251
g8
S'map_admin.html'
p2252
sg10
S'map/admin'
p2253
sg12
g13
(g14
g15
NtRp2254
(dp2255
g18
I1
sg19
I0
sg20
I6
sg21
I0
sg22
I0
sg23
I0
sg24
I0
sbssg227
S'\x10\xach\x9e\xa8\xc3\xc6+\xd70\xa0^dnN\x89'
p2256
ssS'_home_kelvin__virtualenvs_matienv_lib_python2_7_site-packages_django_utils_dateparse'
p2257
(dp2258
g6
(dp2259
g8
S'_home_kelvin__virtualenvs_matienv_lib_python2_7_site-packages_django_utils_dateparse.html'
p2260
sg10
S'/home/kelvin/.virtualenvs/matienv/lib/python2.7/site-packages/django/utils/dateparse'
p2261
sg12
g13
(g14
g15
NtRp2262
(dp2263
g18
I1
sg19
I0
sg20
I38
sg21
I0
sg22
I0
sg23
I27
sg24
I0
sbssg25
S"hE\x07\xf9GW\xe1\x01WI'<k\xeeh\xac"
p2264
ssS'_home_kelvin__virtualenvs_matienv_lib_python2_7_site-packages_django_core_files_base'
p2265
(dp2266
g6
(dp2267
g8
S'_home_kelvin__virtualenvs_matienv_lib_python2_7_site-packages_django_core_files_base.html'
p2268
sg10
S'/home/kelvin/.virtualenvs/matienv/lib/python2.7/site-packages/django/core/files/base'
p2269
sg12
g13
(g14
g15
NtRp2270
(dp2271
g18
I1
sg19
I0
sg20
I106
sg21
I0
sg22
I0
sg23
I70
sg24
I0
sbssg25
S'\xfd!9\x17W\xc9!<q!\xa1\xfa9,\x1e\xc8'
p2272
ssS'_home_kelvin__virtualenvs_matienv_lib_python2_7_site-packages_django_core_management_commands_test'
p2273
(dp2274
g6
(dp2275
g1206
S'_home_kelvin__virtualenvs_matienv_lib_python2_7_site-packages_django_core_management_commands_test.html'
p2276
sg1208
S'/home/kelvin/.virtualenvs/matienv/lib/python2.7/site-packages/django/core/management/commands/test'
p2277
sg1210
g13
(g14
g15
NtRp2278
(dp2279
g18
I1
sg19
I0
sg20
I46
sg21
I0
sg22
I0
sg23
I5
sg24
I0
sbssg25
S'\xf2\n\xec\xc8\xb0M>\xa5\xf6\xb4MQ\xb2\xf0\x80W'
p2280
ssS'_home_kelvin__virtualenvs_matienv_lib_python2_7_site-packages_django_dispatch___init__'
p2281
(dp2282
g6
(dp2283
g8
S'_home_kelvin__virtualenvs_matienv_lib_python2_7_site-packages_django_dispatch___init__.html'
p2284
sg10
S'/home/kelvin/.virtualenvs/matienv/lib/python2.7/site-packages/django/dispatch/__init__'
p2285
sg12
g13
(g14
g15
NtRp2286
(dp2287
g18
I1
sg19
I0
sg20
I1
sg21
I0
sg22
I0
sg23
I0
sg24
I0
sbssg25
S'\x0c\x08\x7f\xbb\x1cX\xc3a\xeb(\xac\xfd\x85h<\x9f'
p2288
ssS'_home_kelvin__virtualenvs_matienv_lib_python2_7_site-packages_django_dispatch_saferef'
p2289
(dp2290
g6
(dp2291
g31
S'_home_kelvin__virtualenvs_matienv_lib_python2_7_site-packages_django_dispatch_saferef.html'
p2292
sg33
S'/home/kelvin/.virtualenvs/matienv/lib/python2.7/site-packages/django/dispatch/saferef'
p2293
sg35
g13
(g14
g15
NtRp2294
(dp2295
g18
I1
sg19
I0
sg20
I84
sg21
I0
sg22
I0
sg23
I22
sg24
I0
sbssg25
S'\x060s\xa9>\xb3G\xcd\xc6\xbcl\xc2\xc3f\xf9\x95'
p2296
ssS'map_views_course_views'
p2297
(dp2298
g218
(dp2299
g8
S'map_views_course_views.html'
p2300
sg10
S'map/views/course_views'
p2301
sg12
g13
(g14
g15
NtRp2302
(dp2303
g18
I1
sg19
I0
sg20
I66
sg21
I0
sg22
I0
sg23
I52
sg24
I0
sbssg227
S'\xb7\x01\xb2\xb1\xa9\xa1N\xd9\x9aAR\x82s\xe3\xb0X'
p2304
ssS'_home_kelvin__virtualenvs_matienv_lib_python2_7_site-packages_rest_framework_utils___init__'
p2305
(dp2306
g6
(dp2307
g8
S'_home_kelvin__virtualenvs_matienv_lib_python2_7_site-packages_rest_framework_utils___init__.html'
p2308
sg10
S'/home/kelvin/.virtualenvs/matienv/lib/python2.7/site-packages/rest_framework/utils/__init__'
p2309
sg12
g13
(g14
g15
NtRp2310
(dp2311
g18
I1
sg19
I0
sg20
I0
sg21
I0
sg22
I0
sg23
I0
sg24
I0
sbssg25
S'\xca\xf5\x9f\x7f\x88\xdfa\x831|T\x1d\xbc}\xa5v'
p2312
ssS'_home_kelvin__virtualenvs_matienv_lib_python2_7_site-packages_django_contrib_auth_hashers'
p2313
(dp2314
g6
(dp2315
g8
S'_home_kelvin__virtualenvs_matienv_lib_python2_7_site-packages_django_contrib_auth_hashers.html'
p2316
sg10
S'/home/kelvin/.virtualenvs/matienv/lib/python2.7/site-packages/django/contrib/auth/hashers'
p2317
sg12
g13
(g14
g15
NtRp2318
(dp2319
g18
I1
sg19
I0
sg20
I246
sg21
I0
sg22
I0
sg23
I159
sg24
I0
sbssg25
S'\x15\xc7\xa8\xdf\xe0\xa9&\xe3\xaf\xddk\x9aC\xdc\xcaW'
p2320
ssS'_home_kelvin__virtualenvs_matienv_lib_python2_7_site-packages_django_core_serializers_base'
p2321
(dp2322
g6
(dp2323
g8
S'_home_kelvin__virtualenvs_matienv_lib_python2_7_site-packages_django_core_serializers_base.html'
p2324
sg10
S'/home/kelvin/.virtualenvs/matienv/lib/python2.7/site-packages/django/core/serializers/base'
p2325
sg12
g13
(g14
g15
NtRp2326
(dp2327
g18
I1
sg19
I0
sg20
I76
sg21
I0
sg22
I0
sg23
I49
sg24
I0
sbssg25
S'\x84CF\xb2\xa8\x0et\x81]\x8c+\x81* X\x08'
p2328
ssS'_home_kelvin__virtualenvs_matienv_lib_python2_7_site-packages_django_contrib_messages_utils'
p2329
(dp2330
g29
(dp2331
g31
S'_home_kelvin__virtualenvs_matienv_lib_python2_7_site-packages_django_contrib_messages_utils.html'
p2332
sg33
S'/home/kelvin/.virtualenvs/matienv/lib/python2.7/site-packages/django/contrib/messages/utils'
p2333
sg35
g13
(g14
g15
NtRp2334
(dp2335
g18
I1
sg19
I0
sg20
I6
sg21
I0
sg22
I0
sg23
I0
sg24
I0
sbssg38
S'\xee\xe6V\xce4\x04\x08y\xc9\xf2\xff\xc9T\xbc?\xa1'
p2336
ssS'_home_kelvin__virtualenvs_matienv_lib_python2_7_site-packages_django_db_backends_postgresql_psycopg2___init__'
p2337
(dp2338
g6
(dp2339
g8
S'_home_kelvin__virtualenvs_matienv_lib_python2_7_site-packages_django_db_backends_postgresql_psycopg2___init__.html'
p2340
sg10
S'/home/kelvin/.virtualenvs/matienv/lib/python2.7/site-packages/django/db/backends/postgresql_psycopg2/__init__'
p2341
sg12
g13
(g14
g15
NtRp2342
(dp2343
g18
I1
sg19
I0
sg20
I0
sg21
I0
sg22
I0
sg23
I0
sg24
I0
sbssg25
S'\xca\xf5\x9f\x7f\x88\xdfa\x831|T\x1d\xbc}\xa5v'
p2344
ssS'_home_kelvin__virtualenvs_matienv_lib_python2_7_site-packages_django_core_files_move'
p2345
(dp2346
g6
(dp2347
g8
S'_home_kelvin__virtualenvs_matienv_lib_python2_7_site-packages_django_core_files_move.html'
p2348
sg10
S'/home/kelvin/.virtualenvs/matienv/lib/python2.7/site-packages/django/core/files/move'
p2349
sg12
g13
(g14
g15
NtRp2350
(dp2351
g18
I1
sg19
I0
sg20
I47
sg21
I0
sg22
I0
sg23
I40
sg24
I0
sbssg25
S'u\xd5\xf9R\x96\xb4M\xdd;\r\x98\x12\xcd\x1a\tH'
p2352
ssS'_home_kelvin__virtualenvs_matienv_lib_python2_7_site-packages_django_db_backends_postgresql_psycopg2_version'
p2353
(dp2354
g6
(dp2355
g8
S'_home_kelvin__virtualenvs_matienv_lib_python2_7_site-packages_django_db_backends_postgresql_psycopg2_version.html'
p2356
sg10
S'/home/kelvin/.virtualenvs/matienv/lib/python2.7/site-packages/django/db/backends/postgresql_psycopg2/version'
p2357
sg12
g13
(g14
g15
NtRp2358
(dp2359
g18
I1
sg19
I0
sg20
I14
sg21
I0
sg22
I0
sg23
I10
sg24
I0
sbssg25
S'\x89)\xa9!\xa3\x99\xc5*H\xf0_\x7f\x8b)\xa4`'
p2360
ssS'_home_kelvin__virtualenvs_matienv_lib_python2_7_site-packages_django_utils_functional'
p2361
(dp2362
g6
(dp2363
g31
S'_home_kelvin__virtualenvs_matienv_lib_python2_7_site-packages_django_utils_functional.html'
p2364
sg33
S'/home/kelvin/.virtualenvs/matienv/lib/python2.7/site-packages/django/utils/functional'
p2365
sg35
g13
(g14
g15
NtRp2366
(dp2367
g18
I1
sg19
I0
sg20
I222
sg21
I0
sg22
I0
sg23
I86
sg24
I0
sbssg25
S'\x9c\x05\x9b3Ln\x08)\x08\x82\x9f\xcb\x19\xce-O'
p2368
ssS'_home_kelvin__virtualenvs_matienv_lib_python2_7_site-packages_django_utils_ipv6'
p2369
(dp2370
g6
(dp2371
g8
S'_home_kelvin__virtualenvs_matienv_lib_python2_7_site-packages_django_utils_ipv6.html'
p2372
sg10
S'/home/kelvin/.virtualenvs/matienv/lib/python2.7/site-packages/django/utils/ipv6'
p2373
sg12
g13
(g14
g15
NtRp2374
(dp2375
g18
I1
sg19
I0
sg20
I108
sg21
I0
sg22
I0
sg23
I99
sg24
I0
sbssg25
S'\xe3d\xb6\xc6G\xbc\x05=\x85j\xee~\xfb\xd2g\xda'
p2376
ssS'_home_kelvin__virtualenvs_matienv_lib_python2_7_site-packages_django_middleware___init__'
p2377
(dp2378
g6
(dp2379
g8
S'_home_kelvin__virtualenvs_matienv_lib_python2_7_site-packages_django_middleware___init__.html'
p2380
sg10
S'/home/kelvin/.virtualenvs/matienv/lib/python2.7/site-packages/django/middleware/__init__'
p2381
sg12
g13
(g14
g15
NtRp2382
(dp2383
g18
I1
sg19
I0
sg20
I0
sg21
I0
sg22
I0
sg23
I0
sg24
I0
sbssg25
S'\xca\xf5\x9f\x7f\x88\xdfa\x831|T\x1d\xbc}\xa5v'
p2384
ssS'_home_kelvin__virtualenvs_matienv_lib_python2_7_site-packages_django_contrib_sessions_backends_base'
p2385
(dp2386
g6
(dp2387
g31
S'_home_kelvin__virtualenvs_matienv_lib_python2_7_site-packages_django_contrib_sessions_backends_base.html'
p2388
sg33
S'/home/kelvin/.virtualenvs/matienv/lib/python2.7/site-packages/django/contrib/sessions/backends/base'
p2389
sg35
g13
(g14
g15
NtRp2390
(dp2391
g18
I1
sg19
I0
sg20
I181
sg21
I0
sg22
I0
sg23
I107
sg24
I0
sbssg25
S'ZA[\x94\x94\xc9U\x1cNz\xfe\\\xf8[\xf4#'
p2392
ssS'_home_kelvin__virtualenvs_matienv_lib_python2_7_site-packages_rest_framework_utils_encoders'
p2393
(dp2394
g6
(dp2395
g8
S'_home_kelvin__virtualenvs_matienv_lib_python2_7_site-packages_rest_framework_utils_encoders.html'
p2396
sg10
S'/home/kelvin/.virtualenvs/matienv/lib/python2.7/site-packages/rest_framework/utils/encoders'
p2397
sg12
g13
(g14
g15
NtRp2398
(dp2399
g18
I1
sg19
I0
sg20
I82
sg21
I0
sg22
I0
sg23
I65
sg24
I0
sbssg25
S'\x91\no\xf8\xd0K\xd5\xec\xf0SU\x05\xa9\x90\x08\xa0'
p2400
ssS'_home_kelvin__virtualenvs_matienv_lib_python2_7_site-packages_django_contrib_messages_models'
p2401
(dp2402
g6
(dp2403
g8
S'_home_kelvin__virtualenvs_matienv_lib_python2_7_site-packages_django_contrib_messages_models.html'
p2404
sg10
S'/home/kelvin/.virtualenvs/matienv/lib/python2.7/site-packages/django/contrib/messages/models'
p2405
sg12
g13
(g14
g15
NtRp2406
(dp2407
g18
I1
sg19
I0
sg20
I0
sg21
I0
sg22
I0
sg23
I0
sg24
I0
sbssg25
S'@\xce\xa8\x1c\x878\x17\xf9\x8fE\xaa\xd8\x99\xe1\x85\x93'
p2408
ssS'_home_kelvin__virtualenvs_matienv_lib_python2_7_site-packages_rest_framework_reverse'
p2409
(dp2410
g6
(dp2411
g8
S'_home_kelvin__virtualenvs_matienv_lib_python2_7_site-packages_rest_framework_reverse.html'
p2412
sg10
S'/home/kelvin/.virtualenvs/matienv/lib/python2.7/site-packages/rest_framework/reverse'
p2413
sg12
g13
(g14
g15
NtRp2414
(dp2415
g18
I1
sg19
I0
sg20
I12
sg21
I0
sg22
I0
sg23
I7
sg24
I0
sbssg25
S'Tk\x1c\xca\x16\xb4\xff\xed]\xf9\xf3O\xef=\x0c\x98'
p2416
ssS'_home_kelvin__virtualenvs_matienv_lib_python2_7_site-packages_django_core_management_commands___init__'
p2417
(dp2418
g6
(dp2419
g8
S'_home_kelvin__virtualenvs_matienv_lib_python2_7_site-packages_django_core_management_commands___init__.html'
p2420
sg10
S'/home/kelvin/.virtualenvs/matienv/lib/python2.7/site-packages/django/core/management/commands/__init__'
p2421
sg12
g13
(g14
g15
NtRp2422
(dp2423
g18
I1
sg19
I0
sg20
I0
sg21
I0
sg22
I0
sg23
I0
sg24
I0
sbssg25
S'\xca\xf5\x9f\x7f\x88\xdfa\x831|T\x1d\xbc}\xa5v'
p2424
ssS'map_common_section_common'
p2425
(dp2426
g218
(dp2427
g31
S'map_common_section_common.html'
p2428
sg33
S'map/common/section_common'
p2429
sg35
g13
(g14
g15
NtRp2430
(dp2431
g18
I1
sg19
I0
sg20
I66
sg21
I0
sg22
I0
sg23
I48
sg24
I0
sbssg227
S'!\x1f\xed]\x8e\xb8\xacTJ\xa1\x99\xf4\xae%f\x0e'
p2432
ssS'_home_kelvin__virtualenvs_matienv_lib_python2_7_site-packages_django_core_files_storage'
p2433
(dp2434
g6
(dp2435
g8
S'_home_kelvin__virtualenvs_matienv_lib_python2_7_site-packages_django_core_files_storage.html'
p2436
sg10
S'/home/kelvin/.virtualenvs/matienv/lib/python2.7/site-packages/django/core/files/storage'
p2437
sg12
g13
(g14
g15
NtRp2438
(dp2439
g18
I1
sg19
I0
sg20
I146
sg21
I0
sg22
I0
sg23
I100
sg24
I0
sbssg25
S'`e7\xff\x82\xaf\xd0\x0c\x98\xe1p\xaf[\xbd*\x14'
p2440
ssS'_home_kelvin__virtualenvs_matienv_lib_python2_7_site-packages_django_db_models_sql___init__'
p2441
(dp2442
g6
(dp2443
g8
S'_home_kelvin__virtualenvs_matienv_lib_python2_7_site-packages_django_db_models_sql___init__.html'
p2444
sg10
S'/home/kelvin/.virtualenvs/matienv/lib/python2.7/site-packages/django/db/models/sql/__init__'
p2445
sg12
g13
(g14
g15
NtRp2446
(dp2447
g18
I1
sg19
I0
sg20
I6
sg21
I0
sg22
I0
sg23
I0
sg24
I0
sbssg25
S'\x1c\xc2@\xa8\xcd9\xbe\x01;Hd+\xda.\xae\xd3'
p2448
ssS'dimaps_tests'
p2449
(dp2450
g218
(dp2451
g220
S'dimaps_tests.html'
p2452
sg222
S'dimaps/tests'
p2453
sg224
g13
(g14
g15
NtRp2454
(dp2455
g18
I1
sg19
I0
sg20
I1
sg21
I0
sg22
I0
sg23
I1
sg24
I0
sbssg227
S']\x1b\xa4\x10\x8a\xf9.\x84\xd5\xb1b>D\xf6\xa9\xc5'
p2456
ssS'_home_kelvin__virtualenvs_matienv_lib_python2_7_site-packages_django_core_files_utils'
p2457
(dp2458
g6
(dp2459
g8
S'_home_kelvin__virtualenvs_matienv_lib_python2_7_site-packages_django_core_files_utils.html'
p2460
sg10
S'/home/kelvin/.virtualenvs/matienv/lib/python2.7/site-packages/django/core/files/utils'
p2461
sg12
g13
(g14
g15
NtRp2462
(dp2463
g18
I1
sg19
I0
sg20
I19
sg21
I0
sg22
I0
sg23
I1
sg24
I0
sbssg25
S'\xf9\x11l\xd6u\x8d\xd2\xe3g\x05F\xd6{F\x15\xdc'
p2464
ssS'mati_urls'
p2465
(dp2466
g218
(dp2467
g8
S'mati_urls.html'
p2468
sg10
S'mati/urls'
p2469
sg12
g13
(g14
g15
NtRp2470
(dp2471
g18
I1
sg19
I0
sg20
I5
sg21
I0
sg22
I0
sg23
I0
sg24
I0
sbssg227
S'\xd3N\x96E\x0b\x11\xc2\xa4Xb\x1f\x17d\x0b\xcb\xc8'
p2472
ssS'map_api_pensum_api'
p2473
(dp2474
g218
(dp2475
g8
S'map_api_pensum_api.html'
p2476
sg10
S'map/api/pensum_api'
p2477
sg12
g13
(g14
g15
NtRp2478
(dp2479
g18
I1
sg19
I0
sg20
I64
sg21
I0
sg22
I0
sg23
I56
sg24
I0
sbssg227
S"\x1d\xc6\xcf\xe8r'\xa7\xa7\xedJY\x03\x07\x07\x18\xc9"
p2480
ssS'_home_kelvin__virtualenvs_matienv_lib_python2_7_site-packages_django_conf_locale_en_formats'
p2481
(dp2482
g6
(dp2483
g8
S'_home_kelvin__virtualenvs_matienv_lib_python2_7_site-packages_django_conf_locale_en_formats.html'
p2484
sg10
S'/home/kelvin/.virtualenvs/matienv/lib/python2.7/site-packages/django/conf/locale/en/formats'
p2485
sg12
g13
(g14
g15
NtRp2486
(dp2487
g18
I1
sg19
I0
sg20
I14
sg21
I0
sg22
I0
sg23
I0
sg24
I0
sbssg25
S'\x177\xa3\xb10\xbb?\x8e\xfd\x1bj\xf8\xf8\xe3D\xe0'
p2488
ssS'_home_kelvin__virtualenvs_matienv_lib_python2_7_site-packages_django_db_models_signals'
p2489
(dp2490
g6
(dp2491
g8
S'_home_kelvin__virtualenvs_matienv_lib_python2_7_site-packages_django_db_models_signals.html'
p2492
sg10
S'/home/kelvin/.virtualenvs/matienv/lib/python2.7/site-packages/django/db/models/signals'
p2493
sg12
g13
(g14
g15
NtRp2494
(dp2495
g18
I1
sg19
I0
sg20
I11
sg21
I0
sg22
I0
sg23
I0
sg24
I0
sbssg25
S'\x025!\xbd\xfd%\xdc\x0cD"74\xef\xfc\x9b\xa3'
p2496
ssS'_home_kelvin__virtualenvs_matienv_lib_python2_7_site-packages_rest_framework_authtoken_models'
p2497
(dp2498
g6
(dp2499
g8
S'_home_kelvin__virtualenvs_matienv_lib_python2_7_site-packages_rest_framework_authtoken_models.html'
p2500
sg10
S'/home/kelvin/.virtualenvs/matienv/lib/python2.7/site-packages/rest_framework/authtoken/models'
p2501
sg12
g13
(g14
g15
NtRp2502
(dp2503
g18
I1
sg19
I0
sg20
I19
sg21
I0
sg22
I0
sg23
I5
sg24
I0
sbssg25
S'9o\xfb\n\x7f\xcf\xc2\x86\x82\xa5\x9d\xfc\x0e\x02`\xd3'
p2504
ssS'_home_kelvin__virtualenvs_matienv_lib_python2_7_site-packages_django_utils_cache'
p2505
(dp2506
g6
(dp2507
g31
S'_home_kelvin__virtualenvs_matienv_lib_python2_7_site-packages_django_utils_cache.html'
p2508
sg33
S'/home/kelvin/.virtualenvs/matienv/lib/python2.7/site-packages/django/utils/cache'
p2509
sg35
g13
(g14
g15
NtRp2510
(dp2511
g18
I1
sg19
I0
sg20
I133
sg21
I0
sg22
I0
sg23
I104
sg24
I0
sbssg25
S'G\x1d\xa2fY\x8a\x00\xba\x96\xe5R/\xf2\x93\xcd\xe8'
p2512
ssS'_home_kelvin__virtualenvs_matienv_lib_python2_7_site-packages_django_middleware_clickjacking'
p2513
(dp2514
g29
(dp2515
g31
S'_home_kelvin__virtualenvs_matienv_lib_python2_7_site-packages_django_middleware_clickjacking.html'
p2516
sg33
S'/home/kelvin/.virtualenvs/matienv/lib/python2.7/site-packages/django/middleware/clickjacking'
p2517
sg35
g13
(g14
g15
NtRp2518
(dp2519
g18
I1
sg19
I0
sg20
I11
sg21
I0
sg22
I0
sg23
I2
sg24
I0
sbssg38
S'\xcc\xac\xf8nKw\x90\x82\xdf\x15\xe4\x8e\xff\x15\xca\xca'
p2520
ssS'_home_kelvin__virtualenvs_matienv_lib_python2_7_site-packages_django_conf_locale_en___init__'
p2521
(dp2522
g6
(dp2523
g8
S'_home_kelvin__virtualenvs_matienv_lib_python2_7_site-packages_django_conf_locale_en___init__.html'
p2524
sg10
S'/home/kelvin/.virtualenvs/matienv/lib/python2.7/site-packages/django/conf/locale/en/__init__'
p2525
sg12
g13
(g14
g15
NtRp2526
(dp2527
g18
I1
sg19
I0
sg20
I0
sg21
I0
sg22
I0
sg23
I0
sg24
I0
sbssg25
S'\xca\xf5\x9f\x7f\x88\xdfa\x831|T\x1d\xbc}\xa5v'
p2528
ssS'_home_kelvin__virtualenvs_matienv_lib_python2_7_site-packages_south_models'
p2529
(dp2530
g6
(dp2531
g8
S'_home_kelvin__virtualenvs_matienv_lib_python2_7_site-packages_south_models.html'
p2532
sg10
S'/home/kelvin/.virtualenvs/matienv/lib/python2.7/site-packages/south/models'
p2533
sg12
g13
(g14
g15
NtRp2534
(dp2535
g18
I1
sg19
I0
sg20
I24
sg21
I0
sg22
I0
sg23
I6
sg24
I0
sbssg25
S'\xfe\xb9\xa2A;P\xda\x91\xaf&"\x12sJ#\xa5'
p2536
ssS'_home_kelvin__virtualenvs_matienv_lib_python2_7_site-packages_django_contrib_auth_middleware'
p2537
(dp2538
g29
(dp2539
g31
S'_home_kelvin__virtualenvs_matienv_lib_python2_7_site-packages_django_contrib_auth_middleware.html'
p2540
sg33
S'/home/kelvin/.virtualenvs/matienv/lib/python2.7/site-packages/django/contrib/auth/middleware'
p2541
sg35
g13
(g14
g15
NtRp2542
(dp2543
g18
I1
sg19
I0
sg20
I44
sg21
I0
sg22
I0
sg23
I27
sg24
I0
sbssg38
S'\xee\xa0_5\xfcP\xdf\xe2\x92\x0c\xc7\x81\x15\xf1\xc8\xc8'
p2544
ssS'_home_kelvin__virtualenvs_matienv_lib_python2_7_site-packages_bootstrapform___init__'
p2545
(dp2546
g6
(dp2547
g8
S'_home_kelvin__virtualenvs_matienv_lib_python2_7_site-packages_bootstrapform___init__.html'
p2548
sg10
S'/home/kelvin/.virtualenvs/matienv/lib/python2.7/site-packages/bootstrapform/__init__'
p2549
sg12
g13
(g14
g15
NtRp2550
(dp2551
g18
I1
sg19
I0
sg20
I2
sg21
I0
sg22
I0
sg23
I0
sg24
I0
sbssg25
S'X\x94\xd4]\xebm\x17\x85\x82\xaed\xa7\x06[^3'
p2552
ssS'_home_kelvin__virtualenvs_matienv_lib_python2_7_site-packages_django_db_models_sql_constants'
p2553
(dp2554
g6
(dp2555
g8
S'_home_kelvin__virtualenvs_matienv_lib_python2_7_site-packages_django_db_models_sql_constants.html'
p2556
sg10
S'/home/kelvin/.virtualenvs/matienv/lib/python2.7/site-packages/django/db/models/sql/constants'
p2557
sg12
g13
(g14
g15
NtRp2558
(dp2559
g18
I1
sg19
I0
sg20
I10
sg21
I0
sg22
I0
sg23
I0
sg24
I0
sbssg25
S'\xb5DP\xdaM\xcf\x15R\x18\xe5~"\xea\xbc\xf2\xb2'
p2560
ssS'_home_kelvin__virtualenvs_matienv_lib_python2_7_site-packages_django_db_models_query_utils'
p2561
(dp2562
g6
(dp2563
g8
S'_home_kelvin__virtualenvs_matienv_lib_python2_7_site-packages_django_db_models_query_utils.html'
p2564
sg10
S'/home/kelvin/.virtualenvs/matienv/lib/python2.7/site-packages/django/db/models/query_utils'
p2565
sg12
g13
(g14
g15
NtRp2566
(dp2567
g18
I1
sg19
I0
sg20
I100
sg21
I0
sg22
I0
sg23
I72
sg24
I0
sbssg25
S'\x9cs\xd5{\xf5\x9b\xb7|;\xf4\x93\xea\xe4\x850\xc9'
p2568
ssS'mati___init__'
p2569
(dp2570
g218
(dp2571
g220
S'mati___init__.html'
p2572
sg222
S'mati/__init__'
p2573
sg224
g13
(g14
g15
NtRp2574
(dp2575
g18
I1
sg19
I0
sg20
I0
sg21
I0
sg22
I0
sg23
I0
sg24
I0
sbssg227
S'\xca\xf5\x9f\x7f\x88\xdfa\x831|T\x1d\xbc}\xa5v'
p2576
ssS'_home_kelvin__virtualenvs_matienv_lib_python2_7_site-packages_django_db_backends_postgresql_psycopg2_client'
p2577
(dp2578
g6
(dp2579
g8
S'_home_kelvin__virtualenvs_matienv_lib_python2_7_site-packages_django_db_backends_postgresql_psycopg2_client.html'
p2580
sg10
S'/home/kelvin/.virtualenvs/matienv/lib/python2.7/site-packages/django/db/backends/postgresql_psycopg2/client'
p2581
sg12
g13
(g14
g15
NtRp2582
(dp2583
g18
I1
sg19
I0
sg20
I18
sg21
I0
sg22
I0
sg23
I12
sg24
I0
sbssg25
S'\xae\x97\x7fF\x91$\xdf\xb8\\S\x84\xdbY\xa7\xbd\x13'
p2584
ssS'_home_kelvin__virtualenvs_matienv_lib_python2_7_site-packages_django_utils_safestring'
p2585
(dp2586
g6
(dp2587
g8
S'_home_kelvin__virtualenvs_matienv_lib_python2_7_site-packages_django_utils_safestring.html'
p2588
sg10
S'/home/kelvin/.virtualenvs/matienv/lib/python2.7/site-packages/django/utils/safestring'
p2589
sg12
g13
(g14
g15
NtRp2590
(dp2591
g18
I1
sg19
I0
sg20
I64
sg21
I0
sg22
I0
sg23
I33
sg24
I0
sbssg25
S'\x04E\x07\x0c\x95\xe9\x8e\r\x9d\x99\xf1\xf4C\xdf\x9e\xc3'
p2592
ssS'_home_kelvin__virtualenvs_matienv_lib_python2_7_site-packages_django_http_response'
p2593
(dp2594
g6
(dp2595
g31
S'_home_kelvin__virtualenvs_matienv_lib_python2_7_site-packages_django_http_response.html'
p2596
sg33
S'/home/kelvin/.virtualenvs/matienv/lib/python2.7/site-packages/django/http/response'
p2597
sg35
g13
(g14
g15
NtRp2598
(dp2599
g18
I1
sg19
I0
sg20
I245
sg21
I0
sg22
I0
sg23
I111
sg24
I0
sbssg25
S'\x1c\xf8U>\x1e\xf3\xaaP\xdb\x93\x89H\xd7\xa9\x8bA'
p2600
ssS'_home_kelvin__virtualenvs_matienv_lib_python2_7_site-packages_django_contrib_sessions_middleware'
p2601
(dp2602
g29
(dp2603
g31
S'_home_kelvin__virtualenvs_matienv_lib_python2_7_site-packages_django_contrib_sessions_middleware.html'
p2604
sg33
S'/home/kelvin/.virtualenvs/matienv/lib/python2.7/site-packages/django/contrib/sessions/middleware'
p2605
sg35
g13
(g14
g15
NtRp2606
(dp2607
g18
I1
sg19
I0
sg20
I29
sg21
I0
sg22
I0
sg23
I11
sg24
I0
sbssg38
S'\xf5|\xbb6\x01\x99s`\x94\xb9Q\x96?\xafn\xca'
p2608
ssS'_home_kelvin__virtualenvs_matienv_lib_python2_7_site-packages_psycopg2_tz'
p2609
(dp2610
g6
(dp2611
g8
S'_home_kelvin__virtualenvs_matienv_lib_python2_7_site-packages_psycopg2_tz.html'
p2612
sg10
S'/home/kelvin/.virtualenvs/matienv/lib/python2.7/site-packages/psycopg2/tz'
p2613
sg12
g13
(g14
g15
NtRp2614
(dp2615
g18
I1
sg19
I0
sg20
I61
sg21
I0
sg22
I0
sg23
I37
sg24
I0
sbssg25
S'\xcc\xcd03m\xffx\xd96\x8a\xbf\n\x92\xb8{\xfa'
p2616
ssS'map_common_folder_common'
p2617
(dp2618
g218
(dp2619
g8
S'map_common_folder_common.html'
p2620
sg10
S'map/common/folder_common'
p2621
sg12
g13
(g14
g15
NtRp2622
(dp2623
g18
I1
sg19
I0
sg20
I123
sg21
I0
sg22
I0
sg23
I115
sg24
I0
sbssg227
S'=\xe1\xb7v\x88vE\xc2\x9aX\xec\xda@\xd36V'
p2624
ssS'_home_kelvin__virtualenvs_matienv_lib_python2_7_site-packages_django_core_management_validation'
p2625
(dp2626
g6
(dp2627
g8
S'_home_kelvin__virtualenvs_matienv_lib_python2_7_site-packages_django_core_management_validation.html'
p2628
sg10
S'/home/kelvin/.virtualenvs/matienv/lib/python2.7/site-packages/django/core/management/validation'
p2629
sg12
g13
(g14
g15
NtRp2630
(dp2631
g18
I1
sg19
I0
sg20
I253
sg21
I0
sg22
I0
sg23
I104
sg24
I0
sbssg25
S'b\xe5&ZA\xdd\x0e\x08\x1c1H"\xac\xf2\xf4\x83'
p2632
ssS'_home_kelvin__virtualenvs_matienv_lib_python2_7_site-packages_django_template_loader_tags'
p2633
(dp2634
g6
(dp2635
g8
S'_home_kelvin__virtualenvs_matienv_lib_python2_7_site-packages_django_template_loader_tags.html'
p2636
sg10
S'/home/kelvin/.virtualenvs/matienv/lib/python2.7/site-packages/django/template/loader_tags'
p2637
sg12
g13
(g14
g15
NtRp2638
(dp2639
g18
I1
sg19
I0
sg20
I177
sg21
I0
sg22
I0
sg23
I138
sg24
I0
sbssg25
S'\x1a\x10\xde\xe8\xcdbf\\u\xd0R\xb4\xc0\x82\x0b3'
p2640
ssS'_home_kelvin__virtualenvs_matienv_lib_python2_7_site-packages_django_utils_deprecation'
p2641
(dp2642
g6
(dp2643
g8
S'_home_kelvin__virtualenvs_matienv_lib_python2_7_site-packages_django_utils_deprecation.html'
p2644
sg10
S'/home/kelvin/.virtualenvs/matienv/lib/python2.7/site-packages/django/utils/deprecation'
p2645
sg12
g13
(g14
g15
NtRp2646
(dp2647
g18
I1
sg19
I0
sg20
I33
sg21
I0
sg22
I0
sg23
I5
sg24
I0
sbssg25
S'\xeb\x85\x18\x9f2\xed\x0bV\xb3\xe0\xad\xf8\x03B\x94\xb1'
p2648
ssS'_home_kelvin__virtualenvs_matienv_lib_python2_7_site-packages_django_forms_formsets'
p2649
(dp2650
g6
(dp2651
g8
S'_home_kelvin__virtualenvs_matienv_lib_python2_7_site-packages_django_forms_formsets.html'
p2652
sg10
S'/home/kelvin/.virtualenvs/matienv/lib/python2.7/site-packages/django/forms/formsets'
p2653
sg12
g13
(g14
g15
NtRp2654
(dp2655
g18
I1
sg19
I0
sg20
I214
sg21
I0
sg22
I0
sg23
I155
sg24
I0
sbssg25
S'\x05*\x85\xe6{c\xf3WX\xb5\x12$]&J\xe0'
p2656
ssS'_home_kelvin__virtualenvs_matienv_lib_python2_7_site-packages_south_exceptions'
p2657
(dp2658
g6
(dp2659
g8
S'_home_kelvin__virtualenvs_matienv_lib_python2_7_site-packages_south_exceptions.html'
p2660
sg10
S'/home/kelvin/.virtualenvs/matienv/lib/python2.7/site-packages/south/exceptions'
p2661
sg12
g13
(g14
g15
NtRp2662
(dp2663
g18
I1
sg19
I0
sg20
I99
sg21
I0
sg22
I0
sg23
I48
sg24
I0
sbssg25
S'\xb1\xc2\xa7\x95\xbdo\x0e,ap\x04\xd1iAT\x7f'
p2664
ssS'_home_kelvin__virtualenvs_matienv_lib_python2_7_site-packages_django_utils_tree'
p2665
(dp2666
g6
(dp2667
g8
S'_home_kelvin__virtualenvs_matienv_lib_python2_7_site-packages_django_utils_tree.html'
p2668
sg10
S'/home/kelvin/.virtualenvs/matienv/lib/python2.7/site-packages/django/utils/tree'
p2669
sg12
g13
(g14
g15
NtRp2670
(dp2671
g18
I1
sg19
I0
sg20
I50
sg21
I0
sg22
I0
sg23
I20
sg24
I0
sbssg25
S'CJ\x83\xa4\xbcOA;\xf7\xc5r\x9b\x89\xdc\x9a\xa6'
p2672
ssS'_home_kelvin__virtualenvs_matienv_lib_python2_7_site-packages_django_contrib_admin_options'
p2673
(dp2674
g6
(dp2675
g8
S'_home_kelvin__virtualenvs_matienv_lib_python2_7_site-packages_django_contrib_admin_options.html'
p2676
sg10
S'/home/kelvin/.virtualenvs/matienv/lib/python2.7/site-packages/django/contrib/admin/options'
p2677
sg12
g13
(g14
g15
NtRp2678
(dp2679
g18
I1
sg19
I0
sg20
I871
sg21
I0
sg22
I0
sg23
I671
sg24
I0
sbssg25
S'<6$\xd2\x84C\xdeS\x98\x9cr\xa55d\x9c;'
p2680
ssS'_home_kelvin__virtualenvs_matienv_lib_python2_7_site-packages_django_db_models_fields_files'
p2681
(dp2682
g6
(dp2683
g8
S'_home_kelvin__virtualenvs_matienv_lib_python2_7_site-packages_django_db_models_fields_files.html'
p2684
sg10
S'/home/kelvin/.virtualenvs/matienv/lib/python2.7/site-packages/django/db/models/fields/files'
p2685
sg12
g13
(g14
g15
NtRp2686
(dp2687
g18
I1
sg19
I0
sg20
I206
sg21
I0
sg22
I0
sg23
I138
sg24
I0
sbssg25
S':??\x1b\x108\xfc2\xfd\xeb4\xd3S\n\xe1\xdc'
p2688
ssS'_home_kelvin__virtualenvs_matienv_lib_python2_7_site-packages_django_db_models_fields_related'
p2689
(dp2690
g6
(dp2691
S'html_filename'
p2692
S'_home_kelvin__virtualenvs_matienv_lib_python2_7_site-packages_django_db_models_fields_related.html'
p2693
sS'name'
p2694
S'/home/kelvin/.virtualenvs/matienv/lib/python2.7/site-packages/django/db/models/fields/related'
p2695
sS'nums'
p2696
g13
(g14
g15
NtRp2697
(dp2698
g18
I1
sg19
I0
sg20
I837
sg21
I0
sg22
I0
sg23
I296
sg24
I0
sbssg25
S'g\x07\xb1Ua\xa8\xca\xfaL\x9b\xe16R?\xf4|'
p2699
ssS'_home_kelvin__virtualenvs_matienv_lib_python2_7_site-packages_django_shortcuts___init__'
p2700
(dp2701
g6
(dp2702
g31
S'_home_kelvin__virtualenvs_matienv_lib_python2_7_site-packages_django_shortcuts___init__.html'
p2703
sg33
S'/home/kelvin/.virtualenvs/matienv/lib/python2.7/site-packages/django/shortcuts/__init__'
p2704
sg35
g13
(g14
g15
NtRp2705
(dp2706
g18
I1
sg19
I0
sg20
I63
sg21
I0
sg22
I0
sg23
I41
sg24
I0
sbssg25
S'\xf96H\\\xe7\xf6\xa0\x16\x18\xdc\x16\xc8\xc2\xfeLI'
p2707
ssS'_home_kelvin__virtualenvs_matienv_lib_python2_7_site-packages_django_template_base'
p2708
(dp2709
g6
(dp2710
g8
S'_home_kelvin__virtualenvs_matienv_lib_python2_7_site-packages_django_template_base.html'
p2711
sg10
S'/home/kelvin/.virtualenvs/matienv/lib/python2.7/site-packages/django/template/base'
p2712
sg12
g13
(g14
g15
NtRp2713
(dp2714
g18
I1
sg19
I0
sg20
I787
sg21
I0
sg22
I0
sg23
I569
sg24
I0
sbssg25
S'*\n\xd3\x1ar\xe9q\xb4\x94z&$\xa33b\xce'
p2715
ssS'_home_kelvin__virtualenvs_matienv_lib_python2_7_site-packages_south_migration_utils'
p2716
(dp2717
g6
(dp2718
g8
S'_home_kelvin__virtualenvs_matienv_lib_python2_7_site-packages_south_migration_utils.html'
p2719
sg10
S'/home/kelvin/.virtualenvs/matienv/lib/python2.7/site-packages/south/migration/utils'
p2720
sg12
g13
(g14
g15
NtRp2721
(dp2722
g18
I1
sg19
I0
sg20
I61
sg21
I0
sg22
I0
sg23
I22
sg24
I0
sbssg25
S'\xe3\xd9,\x14\x01\x86\nK\x8c\xdeT\xb0j\x86\xb5\xf0'
p2723
ssS'_home_kelvin__virtualenvs_matienv_lib_python2_7_site-packages_django_contrib_sessions_management___init__'
p2724
(dp2725
g6
(dp2726
g8
S'_home_kelvin__virtualenvs_matienv_lib_python2_7_site-packages_django_contrib_sessions_management___init__.html'
p2727
sg10
S'/home/kelvin/.virtualenvs/matienv/lib/python2.7/site-packages/django/contrib/sessions/management/__init__'
p2728
sg12
g13
(g14
g15
NtRp2729
(dp2730
g18
I1
sg19
I0
sg20
I0
sg21
I0
sg22
I0
sg23
I0
sg24
I0
sbssg25
S'\xca\xf5\x9f\x7f\x88\xdfa\x831|T\x1d\xbc}\xa5v'
p2731
ssS'_home_kelvin__virtualenvs_matienv_lib_python2_7_site-packages_django_contrib_admin_sites'
p2732
(dp2733
g6
(dp2734
g8
S'_home_kelvin__virtualenvs_matienv_lib_python2_7_site-packages_django_contrib_admin_sites.html'
p2735
sg10
S'/home/kelvin/.virtualenvs/matienv/lib/python2.7/site-packages/django/contrib/admin/sites'
p2736
sg12
g13
(g14
g15
NtRp2737
(dp2738
g18
I1
sg19
I0
sg20
I204
sg21
I0
sg22
I0
sg23
I121
sg24
I0
sbssg25
S'6\xca1\x03\xb2\xa24\xd4\xac\x12\xce$\x18\x10\xe7\t'
p2739
ssS'_home_kelvin__virtualenvs_matienv_lib_python2_7_site-packages_django_db_models_fields_proxy'
p2740
(dp2741
g6
(dp2742
g8
S'_home_kelvin__virtualenvs_matienv_lib_python2_7_site-packages_django_db_models_fields_proxy.html'
p2743
sg10
S'/home/kelvin/.virtualenvs/matienv/lib/python2.7/site-packages/django/db/models/fields/proxy'
p2744
sg12
g13
(g14
g15
NtRp2745
(dp2746
g18
I1
sg19
I0
sg20
I6
sg21
I0
sg22
I0
sg23
I3
sg24
I0
sbssg25
S'V\x13\xa3\x82& \x8au\xa8\xde\xd3\x84\xd0B\xc1\x80'
p2747
ssS'_home_kelvin__virtualenvs_matienv_lib_python2_7_site-packages_django_contrib_staticfiles_management___init__'
p2748
(dp2749
g6
(dp2750
g8
S'_home_kelvin__virtualenvs_matienv_lib_python2_7_site-packages_django_contrib_staticfiles_management___init__.html'
p2751
sg10
S'/home/kelvin/.virtualenvs/matienv/lib/python2.7/site-packages/django/contrib/staticfiles/management/__init__'
p2752
sg12
g13
(g14
g15
NtRp2753
(dp2754
g18
I1
sg19
I0
sg20
I0
sg21
I0
sg22
I0
sg23
I0
sg24
I0
sbssg25
S'\xca\xf5\x9f\x7f\x88\xdfa\x831|T\x1d\xbc}\xa5v'
p2755
ssS'_home_kelvin__virtualenvs_matienv_lib_python2_7_site-packages_django_db_models_options'
p2756
(dp2757
g6
(dp2758
g8
S'_home_kelvin__virtualenvs_matienv_lib_python2_7_site-packages_django_db_models_options.html'
p2759
sg10
S'/home/kelvin/.virtualenvs/matienv/lib/python2.7/site-packages/django/db/models/options'
p2760
sg12
g13
(g14
g15
NtRp2761
(dp2762
g18
I1
sg19
I0
sg20
I348
sg21
I0
sg22
I0
sg23
I97
sg24
I0
sbssg25
S'\x8d&\x8fM\xb3s\xe2\x9f\x17\x14S\x8e\x06\\Z|'
p2763
ssS'_home_kelvin__virtualenvs_matienv_lib_python2_7_site-packages_django_utils_crypto'
p2764
(dp2765
g6
(dp2766
g31
S'_home_kelvin__virtualenvs_matienv_lib_python2_7_site-packages_django_utils_crypto.html'
p2767
sg33
S'/home/kelvin/.virtualenvs/matienv/lib/python2.7/site-packages/django/utils/crypto'
p2768
sg35
g13
(g14
g15
NtRp2769
(dp2770
g18
I1
sg19
I0
sg20
I75
sg21
I0
sg22
I0
sg23
I51
sg24
I0
sbssg25
S'\x9ba\xca\xb3\xeein5\xe9\xbe=1\x7f\xf1\x8a\xdb'
p2771
ssS'_home_kelvin__virtualenvs_matienv_lib_python2_7_site-packages_django_contrib_admin_widgets'
p2772
(dp2773
g6
(dp2774
g8
S'_home_kelvin__virtualenvs_matienv_lib_python2_7_site-packages_django_contrib_admin_widgets.html'
p2775
sg10
S'/home/kelvin/.virtualenvs/matienv/lib/python2.7/site-packages/django/contrib/admin/widgets'
p2776
sg12
g13
(g14
g15
NtRp2777
(dp2778
g18
I1
sg19
I0
sg20
I218
sg21
I0
sg22
I0
sg23
I149
sg24
I0
sbssg25
S'\x00\xc8\xa1\xa2D\x8bvh\xb0pO3!o\xe2d'
p2779
ssS'_home_kelvin__virtualenvs_matienv_lib_python2_7_site-packages_django_contrib_admin_filters'
p2780
(dp2781
g6
(dp2782
g8
S'_home_kelvin__virtualenvs_matienv_lib_python2_7_site-packages_django_contrib_admin_filters.html'
p2783
sg10
S'/home/kelvin/.virtualenvs/matienv/lib/python2.7/site-packages/django/contrib/admin/filters'
p2784
sg12
g13
(g14
g15
NtRp2785
(dp2786
g18
I1
sg19
I0
sg20
I188
sg21
I0
sg22
I0
sg23
I127
sg24
I0
sbssg25
S'$\x87%5\x9d\x94~\x14\x8d\x8f\x0f+n\xc4h\xe2'
p2787
ssS'_home_kelvin__virtualenvs_matienv_lib_python2_7_site-packages_django_contrib_messages_storage___init__'
p2788
(dp2789
g6
(dp2790
g8
S'_home_kelvin__virtualenvs_matienv_lib_python2_7_site-packages_django_contrib_messages_storage___init__.html'
p2791
sg10
S'/home/kelvin/.virtualenvs/matienv/lib/python2.7/site-packages/django/contrib/messages/storage/__init__'
p2792
sg12
g13
(g14
g15
NtRp2793
(dp2794
g18
I1
sg19
I0
sg20
I3
sg21
I0
sg22
I0
sg23
I0
sg24
I0
sbssg25
S'V\x94\xb8\x83~\xeb\xbbT\xecJ\x02\xdd*\x08B\xad'
p2795
ssS'_home_kelvin__virtualenvs_matienv_lib_python2_7_site-packages_django_contrib_messages_storage_cookie'
p2796
(dp2797
g29
(dp2798
g31
S'_home_kelvin__virtualenvs_matienv_lib_python2_7_site-packages_django_contrib_messages_storage_cookie.html'
p2799
sg33
S'/home/kelvin/.virtualenvs/matienv/lib/python2.7/site-packages/django/contrib/messages/storage/cookie'
p2800
sg35
g13
(g14
g15
NtRp2801
(dp2802
g18
I1
sg19
I0
sg20
I81
sg21
I0
sg22
I0
sg23
I58
sg24
I0
sbssg38
S'\x18!\xbf*\xa9\x82\xf0\xc0\x16\xf4h\x11\x16$\xe5\x02'
p2803
ssS'map_views_subject_views'
p2804
(dp2805
g218
(dp2806
g8
S'map_views_subject_views.html'
p2807
sg10
S'map/views/subject_views'
p2808
sg12
g13
(g14
g15
NtRp2809
(dp2810
g18
I1
sg19
I0
sg20
I57
sg21
I0
sg22
I0
sg23
I47
sg24
I0
sbssg227
S'\xee\xa9=d\xbcp\xf3\x90\xab\x9blb\xad\xdfX<'
p2811
ssS'mati_utils'
p2812
(dp2813
g218
(dp2814
g8
S'mati_utils.html'
p2815
sg10
S'mati/utils'
p2816
sg12
g13
(g14
g15
NtRp2817
(dp2818
g18
I1
sg19
I0
sg20
I7
sg21
I0
sg22
I0
sg23
I6
sg24
I0
sbssg227
S'\x99\xcf\xa7%W\xcd!\x96\xcc\xfc\xfc"\xce\xaa\xa6Y'
p2819
ssS'map_common_course_common'
p2820
(dp2821
g218
(dp2822
S'html_filename'
p2823
S'map_common_course_common.html'
p2824
sS'name'
p2825
S'map/common/course_common'
p2826
sS'nums'
p2827
g13
(g14
g15
NtRp2828
(dp2829
g18
I1
sg19
I0
sg20
I29
sg21
I0
sg22
I0
sg23
I5
sg24
I0
sbssg227
S'\x04j=%\x0c\x83\xc5\x7fN\xc1f\x8d\xef\xc8\xe9\x14'
p2830
ssS'_home_kelvin__virtualenvs_matienv_lib_python2_7_site-packages_django_test_runner'
p2831
(dp2832
g6
(dp2833
g8
S'_home_kelvin__virtualenvs_matienv_lib_python2_7_site-packages_django_test_runner.html'
p2834
sg10
S'/home/kelvin/.virtualenvs/matienv/lib/python2.7/site-packages/django/test/runner'
p2835
sg12
g13
(g14
g15
NtRp2836
(dp2837
g18
I1
sg19
I0
sg20
I150
sg21
I0
sg22
I0
sg23
I15
sg24
I0
sbssg25
S'U\xf8\x8a\xf6\xebO\xeb\xea\xddt\x1e\xab\xed\xa5\xfa&'
p2838
ssS'dimaps_admin'
p2839
(dp2840
g218
(dp2841
g8
S'dimaps_admin.html'
p2842
sg10
S'dimaps/admin'
p2843
sg12
g13
(g14
g15
NtRp2844
(dp2845
g18
I1
sg19
I0
sg20
I1
sg21
I0
sg22
I0
sg23
I0
sg24
I0
sbssg227
S'\xd4\xe9\x8c\x82\x9c\xa2eU\x87h\x8b\xbe!-\xe2\xdf'
p2846
ssS'_home_kelvin__virtualenvs_matienv_lib_python2_7_site-packages_south_migration_base'
p2847
(dp2848
g6
(dp2849
g8
S'_home_kelvin__virtualenvs_matienv_lib_python2_7_site-packages_south_migration_base.html'
p2850
sg10
S'/home/kelvin/.virtualenvs/matienv/lib/python2.7/site-packages/south/migration/base'
p2851
sg12
g13
(g14
g15
NtRp2852
(dp2853
g18
I1
sg19
I0
sg20
I281
sg21
I0
sg22
I0
sg23
I94
sg24
I0
sbssg25
S'x\x8b\xea\xdf#\xb3u\x0bp\xa5\xf5c\xadQV\xde'
p2854
ssS'_home_kelvin__virtualenvs_matienv_lib_python2_7_site-packages_django_db_backends_creation'
p2855
(dp2856
g6
(dp2857
g31
S'_home_kelvin__virtualenvs_matienv_lib_python2_7_site-packages_django_db_backends_creation.html'
p2858
sg33
S'/home/kelvin/.virtualenvs/matienv/lib/python2.7/site-packages/django/db/backends/creation'
p2859
sg35
g13
(g14
g15
NtRp2860
(dp2861
g18
I1
sg19
I0
sg20
I254
sg21
I0
sg22
I0
sg23
I102
sg24
I0
sbssg25
S'+\xe2\xd8}\x84\xabu\xcd@\x03N%\xd2w/\x9d'
p2862
ssS'_home_kelvin__virtualenvs_matienv_lib_python2_7_site-packages_django_core_files_uploadhandler'
p2863
(dp2864
g6
(dp2865
g8
S'_home_kelvin__virtualenvs_matienv_lib_python2_7_site-packages_django_core_files_uploadhandler.html'
p2866
sg10
S'/home/kelvin/.virtualenvs/matienv/lib/python2.7/site-packages/django/core/files/uploadhandler'
p2867
sg12
g13
(g14
g15
NtRp2868
(dp2869
g18
I1
sg19
I0
sg20
I76
sg21
I0
sg22
I0
sg23
I40
sg24
I0
sbssg25
S'\x1ah\xd0\xcd\xde\x14b\xf9\x81H\xf6h\xc0\x8d\x94\xe3'
p2870
ssS'_home_kelvin__virtualenvs_matienv_lib_python2_7_site-packages_django_views_generic___init__'
p2871
(dp2872
g6
(dp2873
g8
S'_home_kelvin__virtualenvs_matienv_lib_python2_7_site-packages_django_views_generic___init__.html'
p2874
sg10
S'/home/kelvin/.virtualenvs/matienv/lib/python2.7/site-packages/django/views/generic/__init__'
p2875
sg12
g13
(g14
g15
NtRp2876
(dp2877
g18
I1
sg19
I0
sg20
I7
sg21
I0
sg22
I0
sg23
I0
sg24
I0
sbssg25
S'<\xa5n\x11x\xad\xb8P\x12\x05\xb3\xd7N8\xae\xa0'
p2878
ssS'map_tests'
p2879
(dp2880
g218
(dp2881
S'html_filename'
p2882
S'map_tests.html'
p2883
sS'name'
p2884
S'map/tests'
p2885
sS'nums'
p2886
g13
(g14
g15
NtRp2887
(dp2888
g18
I1
sg19
I0
sg20
I330
sg21
I0
sg22
I0
sg23
I109
sg24
I0
sbssg227
S'\xb4\x89\xfb\xeb\rJ\xd4\xdc\xcb\xcd|\xfbzbb\xe8'
p2889
ssS'_home_kelvin__virtualenvs_matienv_lib_python2_7_site-packages_django_views_generic_base'
p2890
(dp2891
g6
(dp2892
g8
S'_home_kelvin__virtualenvs_matienv_lib_python2_7_site-packages_django_views_generic_base.html'
p2893
sg10
S'/home/kelvin/.virtualenvs/matienv/lib/python2.7/site-packages/django/views/generic/base'
p2894
sg12
g13
(g14
g15
NtRp2895
(dp2896
g18
I1
sg19
I0
sg20
I105
sg21
I0
sg22
I0
sg23
I59
sg24
I0
sbssg25
S'\x15/\xa5{x\x0e\x89\xd9}\x8a\xfb\xf1f\xba\xa1\x19'
p2897
ssS'_home_kelvin__virtualenvs_matienv_lib_python2_7_site-packages_django_utils__os'
p2898
(dp2899
g6
(dp2900
g8
S'_home_kelvin__virtualenvs_matienv_lib_python2_7_site-packages_django_utils__os.html'
p2901
sg10
S'/home/kelvin/.virtualenvs/matienv/lib/python2.7/site-packages/django/utils/_os'
p2902
sg12
g13
(g14
g15
NtRp2903
(dp2904
g18
I1
sg19
I0
sg20
I43
sg21
I0
sg22
I0
sg23
I22
sg24
I0
sbssg25
S'T\xce\xd3"\x1f\xc5k\x05\x92\x85\x9b\xd8v\xc8\xa6\xcf'
p2905
ssS'_home_kelvin__virtualenvs_matienv_lib_python2_7_site-packages_psycopg2_extensions'
p2906
(dp2907
g6
(dp2908
g8
S'_home_kelvin__virtualenvs_matienv_lib_python2_7_site-packages_psycopg2_extensions.html'
p2909
sg10
S'/home/kelvin/.virtualenvs/matienv/lib/python2.7/site-packages/psycopg2/extensions'
p2910
sg12
g13
(g14
g15
NtRp2911
(dp2912
g18
I1
sg19
I0
sg20
I92
sg21
I0
sg22
I0
sg23
I24
sg24
I0
sbssg25
S'\x82I4\x1at\xbc\xd5Mc\xb6\x86\x9c\x8f&R\xc1'
p2913
ssS'_home_kelvin__virtualenvs_matienv_lib_python2_7_site-packages_django_contrib_staticfiles_storage'
p2914
(dp2915
g6
(dp2916
g8
S'_home_kelvin__virtualenvs_matienv_lib_python2_7_site-packages_django_contrib_staticfiles_storage.html'
p2917
sg10
S'/home/kelvin/.virtualenvs/matienv/lib/python2.7/site-packages/django/contrib/staticfiles/storage'
p2918
sg12
g13
(g14
g15
NtRp2919
(dp2920
g18
I1
sg19
I0
sg20
I180
sg21
I0
sg22
I0
sg23
I141
sg24
I0
sbssg25
S'\xa5\xed\xb1\x90\x97\x84\x8f{Q\x11\xbem\xa1]io'
p2921
ssS'_home_kelvin__virtualenvs_matienv_lib_python2_7_site-packages_django_middleware_csrf'
p2922
(dp2923
g6
(dp2924
g31
S'_home_kelvin__virtualenvs_matienv_lib_python2_7_site-packages_django_middleware_csrf.html'
p2925
sg33
S'/home/kelvin/.virtualenvs/matienv/lib/python2.7/site-packages/django/middleware/csrf'
p2926
sg35
g13
(g14
g15
NtRp2927
(dp2928
g18
I1
sg19
I0
sg20
I81
sg21
I0
sg22
I0
sg23
I40
sg24
I0
sbssg25
S'\xfb%C\xac\x88\xd6\x939z\x87\x86c\xdb\xff\xe6\x15'
p2929
ssS'_home_kelvin__virtualenvs_matienv_lib_python2_7_site-packages_django_utils_datastructures'
p2930
(dp2931
g6
(dp2932
g31
S'_home_kelvin__virtualenvs_matienv_lib_python2_7_site-packages_django_utils_datastructures.html'
p2933
sg33
S'/home/kelvin/.virtualenvs/matienv/lib/python2.7/site-packages/django/utils/datastructures'
p2934
sg35
g13
(g14
g15
NtRp2935
(dp2936
g18
I1
sg19
I0
sg20
I307
sg21
I0
sg22
I0
sg23
I149
sg24
I0
sbssg25
S'\xd04\xde\xd7rp\xd8eDxFJ\xf3\xd3-}'
p2937
ssS'dimaps_views_service_views'
p2938
(dp2939
g218
(dp2940
g8
S'dimaps_views_service_views.html'
p2941
sg10
S'dimaps/views/service_views'
p2942
sg12
g13
(g14
g15
NtRp2943
(dp2944
g18
I1
sg19
I0
sg20
I53
sg21
I0
sg22
I0
sg23
I13
sg24
I0
sbssg227
S'\x95y\xb3lCq7\x08|?r\xc3Wg\x1es'
p2945
ssS'_home_kelvin__virtualenvs_matienv_lib_python2_7_site-packages_django_core_cache___init__'
p2946
(dp2947
g6
(dp2948
g8
S'_home_kelvin__virtualenvs_matienv_lib_python2_7_site-packages_django_core_cache___init__.html'
p2949
sg10
S'/home/kelvin/.virtualenvs/matienv/lib/python2.7/site-packages/django/core/cache/__init__'
p2950
sg12
g13
(g14
g15
NtRp2951
(dp2952
g18
I1
sg19
I0
sg20
I58
sg21
I0
sg22
I0
sg23
I29
sg24
I0
sbssg25
S'\xe0\xbd\xc3;\x14@\xc2T\x92\xf7\xad\xeey\xe8~\xd9'
p2953
ssS'map_forms'
p2954
(dp2955
g218
(dp2956
g8
S'map_forms.html'
p2957
sg10
S'map/forms'
p2958
sg12
g13
(g14
g15
NtRp2959
(dp2960
g18
I1
sg19
I0
sg20
I75
sg21
I0
sg22
I0
sg23
I0
sg24
I0
sbssg227
S'\x7f}\xca\xa2\xdb\xf9j\xe8|\xe7\x91 \xcc\x9c\xad4'
p2961
ssS'_home_kelvin__virtualenvs_matienv_lib_python2_7_site-packages_django_forms_models'
p2962
(dp2963
g6
(dp2964
g8
S'_home_kelvin__virtualenvs_matienv_lib_python2_7_site-packages_django_forms_models.html'
p2965
sg10
S'/home/kelvin/.virtualenvs/matienv/lib/python2.7/site-packages/django/forms/models'
p2966
sg12
g13
(g14
g15
NtRp2967
(dp2968
g18
I1
sg19
I0
sg20
I645
sg21
I0
sg22
I0
sg23
I470
sg24
I0
sbssg25
S"Y\xb8\x897\xd9&\xf8M\xae\x91\x86\x0cZ'`n"
p2969
ssS'_home_kelvin__virtualenvs_matienv_lib_python2_7_site-packages_django_core_urlresolvers'
p2970
(dp2971
g6
(dp2972
g31
S'_home_kelvin__virtualenvs_matienv_lib_python2_7_site-packages_django_core_urlresolvers.html'
p2973
sg33
S'/home/kelvin/.virtualenvs/matienv/lib/python2.7/site-packages/django/core/urlresolvers'
p2974
sg35
g13
(g14
g15
NtRp2975
(dp2976
g18
I1
sg19
I0
sg20
I359
sg21
I0
sg22
I0
sg23
I96
sg24
I0
sbssg25
S'<\xcdw\xb6\xe5\x0c\xc3c\xb1\xb6\x8b\xcf\xfdu}\xdd'
p2977
ssS'_home_kelvin__virtualenvs_matienv_lib_python2_7_site-packages_rest_framework_urls'
p2978
(dp2979
g6
(dp2980
g8
S'_home_kelvin__virtualenvs_matienv_lib_python2_7_site-packages_rest_framework_urls.html'
p2981
sg10
S'/home/kelvin/.virtualenvs/matienv/lib/python2.7/site-packages/rest_framework/urls'
p2982
sg12
g13
(g14
g15
NtRp2983
(dp2984
g18
I1
sg19
I0
sg20
I5
sg21
I0
sg22
I0
sg23
I0
sg24
I0
sbssg25
S'\xf4\xf0\xfew4_\xa3!\xb5\xf0O\x9d\x96\x12j\xed'
p2985
ssS'_home_kelvin__virtualenvs_matienv_lib_python2_7_site-packages_django_core_serializers___init__'
p2986
(dp2987
g6
(dp2988
g8
S'_home_kelvin__virtualenvs_matienv_lib_python2_7_site-packages_django_core_serializers___init__.html'
p2989
sg10
S'/home/kelvin/.virtualenvs/matienv/lib/python2.7/site-packages/django/core/serializers/__init__'
p2990
sg12
g13
(g14
g15
NtRp2991
(dp2992
g18
I1
sg19
I0
sg20
I64
sg21
I0
sg22
I0
sg23
I45
sg24
I0
sbssg25
S"0Q'\x8fx)\xd2\xde\xcd],\xa4\xe2\xc7\xda\x00"
p2993
ssS'_home_kelvin__virtualenvs_matienv_lib_python2_7_site-packages_django_contrib_staticfiles_templatetags_staticfiles'
p2994
(dp2995
g6
(dp2996
g8
S'_home_kelvin__virtualenvs_matienv_lib_python2_7_site-packages_django_contrib_staticfiles_templatetags_staticfiles.html'
p2997
sg10
S'/home/kelvin/.virtualenvs/matienv/lib/python2.7/site-packages/django/contrib/staticfiles/templatetags/staticfiles'
p2998
sg12
g13
(g14
g15
NtRp2999
(dp3000
g18
I1
sg19
I0
sg20
I12
sg21
I0
sg22
I0
sg23
I4
sg24
I0
sbssg25
S'Yr\xd1@\xa6D\xd8\xc6\x1a\xe1\x8e\x06\xe6ue|'
p3001
ssS'_home_kelvin__virtualenvs_matienv_lib_python2_7_site-packages_django_contrib_contenttypes_models'
p3002
(dp3003
g6
(dp3004
g8
S'_home_kelvin__virtualenvs_matienv_lib_python2_7_site-packages_django_contrib_contenttypes_models.html'
p3005
sg10
S'/home/kelvin/.virtualenvs/matienv/lib/python2.7/site-packages/django/contrib/contenttypes/models'
p3006
sg12
g13
(g14
g15
NtRp3007
(dp3008
g18
I1
sg19
I0
sg20
I96
sg21
I0
sg22
I0
sg23
I49
sg24
I0
sbssg25
S'IBc\x9e`A\xe3\xa9\xa2\xaf\x1d\x94IAR-'
p3009
ssS'_home_kelvin__virtualenvs_matienv_lib_python2_7_site-packages_django_contrib_admin_util'
p3010
(dp3011
g6
(dp3012
g8
S'_home_kelvin__virtualenvs_matienv_lib_python2_7_site-packages_django_contrib_admin_util.html'
p3013
sg10
S'/home/kelvin/.virtualenvs/matienv/lib/python2.7/site-packages/django/contrib/admin/util'
p3014
sg12
g13
(g14
g15
NtRp3015
(dp3016
g18
I1
sg19
I0
sg20
I282
sg21
I0
sg22
I0
sg23
I237
sg24
I0
sbssg25
S'F+zj\xb1\xb8\x0b\xe5a\xd7\x83\x9d\r!\xe2^'
p3017
ssS'_home_kelvin__virtualenvs_matienv_lib_python2_7_site-packages_django_utils_log'
p3018
(dp3019
g6
(dp3020
g8
S'_home_kelvin__virtualenvs_matienv_lib_python2_7_site-packages_django_utils_log.html'
p3021
sg10
S'/home/kelvin/.virtualenvs/matienv/lib/python2.7/site-packages/django/utils/log'
p3022
sg12
g13
(g14
g15
NtRp3023
(dp3024
g18
I1
sg19
I0
sg20
I61
sg21
I0
sg22
I0
sg23
I34
sg24
I0
sbssg25
S'Y\xb0\x80\xba\xbb\x11\x8a\xea\xe7\\\x98b\xa0\x9e;6'
p3025
ssS'map_api_section_api'
p3026
(dp3027
g218
(dp3028
g8
S'map_api_section_api.html'
p3029
sg10
S'map/api/section_api'
p3030
sg12
g13
(g14
g15
NtRp3031
(dp3032
g18
I1
sg19
I0
sg20
I99
sg21
I0
sg22
I0
sg23
I89
sg24
I0
sbssg227
S'\xbdu\x07}\xaa\xc7x\xf5\x7f\xc4\\\x8e\x15\xf1$\x17'
p3033
ssS'_home_kelvin__virtualenvs_matienv_lib_python2_7_site-packages_django_contrib_auth___init__'
p3034
(dp3035
g6
(dp3036
g31
S'_home_kelvin__virtualenvs_matienv_lib_python2_7_site-packages_django_contrib_auth___init__.html'
p3037
sg33
S'/home/kelvin/.virtualenvs/matienv/lib/python2.7/site-packages/django/contrib/auth/__init__'
p3038
sg35
g13
(g14
g15
NtRp3039
(dp3040
g18
I1
sg19
I0
sg20
I83
sg21
I0
sg22
I0
sg23
I52
sg24
I0
sbssg25
S' ;c\x80\xa7s\xe56q\xa2\xd0z\x86\xae\xbe>'
p3041
ssS'_home_kelvin__virtualenvs_matienv_lib_python2_7_site-packages_django_contrib_auth_views'
p3042
(dp3043
g6
(dp3044
g31
S'_home_kelvin__virtualenvs_matienv_lib_python2_7_site-packages_django_contrib_auth_views.html'
p3045
sg33
S'/home/kelvin/.virtualenvs/matienv/lib/python2.7/site-packages/django/contrib/auth/views'
p3046
sg35
g13
(g14
g15
NtRp3047
(dp3048
g18
I1
sg19
I0
sg20
I147
sg21
I0
sg22
I0
sg23
I102
sg24
I0
sbssg25
S'\xe5W\x12\x1f\x82\xa6-2\x01<\xec\xb1\xd6\xfa\x0e,'
p3049
ssS'_home_kelvin__virtualenvs_matienv_lib_python2_7_site-packages_django_views_decorators___init__'
p3050
(dp3051
g6
(dp3052
g8
S'_home_kelvin__virtualenvs_matienv_lib_python2_7_site-packages_django_views_decorators___init__.html'
p3053
sg10
S'/home/kelvin/.virtualenvs/matienv/lib/python2.7/site-packages/django/views/decorators/__init__'
p3054
sg12
g13
(g14
g15
NtRp3055
(dp3056
g18
I1
sg19
I0
sg20
I0
sg21
I0
sg22
I0
sg23
I0
sg24
I0
sbssg25
S'\xca\xf5\x9f\x7f\x88\xdfa\x831|T\x1d\xbc}\xa5v'
p3057
ssS'_home_kelvin__virtualenvs_matienv_lib_python2_7_site-packages_django_db_backends_postgresql_psycopg2_base'
p3058
(dp3059
g6
(dp3060
g31
S'_home_kelvin__virtualenvs_matienv_lib_python2_7_site-packages_django_db_backends_postgresql_psycopg2_base.html'
p3061
sg33
S'/home/kelvin/.virtualenvs/matienv/lib/python2.7/site-packages/django/db/backends/postgresql_psycopg2/base'
p3062
sg35
g13
(g14
g15
NtRp3063
(dp3064
g18
I1
sg19
I0
sg20
I135
sg21
I0
sg22
I0
sg23
I32
sg24
I0
sbssg25
S'\x1f\x16\xfd\xfe<v<V\xf9\x811a\xae?s\xc1'
p3065
ssS'_home_kelvin__virtualenvs_matienv_lib_python2_7_site-packages_django_core_files_temp'
p3066
(dp3067
g6
(dp3068
g8
S'_home_kelvin__virtualenvs_matienv_lib_python2_7_site-packages_django_core_files_temp.html'
p3069
sg10
S'/home/kelvin/.virtualenvs/matienv/lib/python2.7/site-packages/django/core/files/temp'
p3070
sg12
g13
(g14
g15
NtRp3071
(dp3072
g18
I1
sg19
I0
sg20
I30
sg21
I0
sg22
I0
sg23
I23
sg24
I0
sbssg25
S'\xacs\xd0D\xffdr\x02\xfc}\x11\xc6\xb0s\xc7\xd8'
p3073
ssS'_home_kelvin__virtualenvs_matienv_lib_python2_7_site-packages_django_core_files_images'
p3074
(dp3075
g6
(dp3076
g8
S'_home_kelvin__virtualenvs_matienv_lib_python2_7_site-packages_django_core_files_images.html'
p3077
sg10
S'/home/kelvin/.virtualenvs/matienv/lib/python2.7/site-packages/django/core/files/images'
p3078
sg12
g13
(g14
g15
NtRp3079
(dp3080
g18
I1
sg19
I0
sg20
I43
sg21
I0
sg22
I0
sg23
I34
sg24
I0
sbssg25
S'Z\xe7k\x87\x0c]\xa6@\x18@T,E\x1d\x14\x90'
p3081
ssS'_home_kelvin__virtualenvs_matienv_lib_python2_7_site-packages_django_utils_module_loading'
p3082
(dp3083
g6
(dp3084
g8
S'_home_kelvin__virtualenvs_matienv_lib_python2_7_site-packages_django_utils_module_loading.html'
p3085
sg10
S'/home/kelvin/.virtualenvs/matienv/lib/python2.7/site-packages/django/utils/module_loading'
p3086
sg12
g13
(g14
g15
NtRp3087
(dp3088
g18
I1
sg19
I0
sg20
I66
sg21
I0
sg22
I0
sg23
I33
sg24
I0
sbssg25
S'\x19a\xe0\x96i\xab\xd5\xb8X\x1f\x87F\xfd\x89ih'
p3089
sssS'version'
p3090
S'3.7.1'
p3091
sS'settings'
p3092
S'\x98\xa8x\xfe"r\xb5K\x98\xb1N\\\x99\x9e\xf3\xe5'
p3093
sS'format'
p3094
I1
s.